
;CodeVisionAVR C Compiler V3.45 
;(C) Copyright 1998-2021 Pavel Haiduc, HP InfoTech S.R.L.
;http://www.hpinfotech.ro

;Build configuration    : Debug
;Chip type              : ATmega128
;Program type           : Application
;Clock frequency        : 14.745600 MHz
;Memory model           : Small
;Optimize for           : Size
;(s)printf features     : int, width
;(s)scanf features      : int, width
;External RAM size      : 0
;Data Stack size        : 1024 byte(s)
;Heap size              : 0 byte(s)
;Promote 'char' to 'int': Yes
;'char' is unsigned     : Yes
;8 bit enums            : Yes
;Global 'const' stored in FLASH: No
;Enhanced function parameter passing: Mode 2
;Enhanced core instructions: On
;Automatic register allocation for global variables: On
;Smart register allocation: On

	#define _MODEL_SMALL_

	#pragma AVRPART ADMIN PART_NAME ATmega128
	#pragma AVRPART MEMORY PROG_FLASH 131072
	#pragma AVRPART MEMORY EEPROM 4096
	#pragma AVRPART MEMORY INT_SRAM SIZE 4096
	#pragma AVRPART MEMORY INT_SRAM START_ADDR 0x100

	#define CALL_SUPPORTED 1

	.LISTMAC
	.EQU UDRE=0x5
	.EQU RXC=0x7
	.EQU USR=0xB
	.EQU UDR=0xC
	.EQU SPSR=0xE
	.EQU SPDR=0xF
	.EQU EERE=0x0
	.EQU EEWE=0x1
	.EQU EEMWE=0x2
	.EQU EECR=0x1C
	.EQU EEDR=0x1D
	.EQU EEARL=0x1E
	.EQU EEARH=0x1F
	.EQU WDTCR=0x21
	.EQU MCUCR=0x35
	.EQU RAMPZ=0x3B
	.EQU SPL=0x3D
	.EQU SPH=0x3E
	.EQU SREG=0x3F
	.EQU XMCRA=0x6D
	.EQU XMCRB=0x6C

	.DEF R0X0=R0
	.DEF R0X1=R1
	.DEF R0X2=R2
	.DEF R0X3=R3
	.DEF R0X4=R4
	.DEF R0X5=R5
	.DEF R0X6=R6
	.DEF R0X7=R7
	.DEF R0X8=R8
	.DEF R0X9=R9
	.DEF R0XA=R10
	.DEF R0XB=R11
	.DEF R0XC=R12
	.DEF R0XD=R13
	.DEF R0XE=R14
	.DEF R0XF=R15
	.DEF R0X10=R16
	.DEF R0X11=R17
	.DEF R0X12=R18
	.DEF R0X13=R19
	.DEF R0X14=R20
	.DEF R0X15=R21
	.DEF R0X16=R22
	.DEF R0X17=R23
	.DEF R0X18=R24
	.DEF R0X19=R25
	.DEF R0X1A=R26
	.DEF R0X1B=R27
	.DEF R0X1C=R28
	.DEF R0X1D=R29
	.DEF R0X1E=R30
	.DEF R0X1F=R31

	.EQU __SRAM_START=0x0100
	.EQU __SRAM_END=0x10FF
	.EQU __DSTACK_SIZE=0x0400
	.EQU __HEAP_SIZE=0x0000
	.EQU __CLEAR_SRAM_SIZE=__SRAM_END-__SRAM_START+1

	.MACRO __CPD1N
	CPI  R30,LOW(@0)
	LDI  R26,HIGH(@0)
	CPC  R31,R26
	LDI  R26,BYTE3(@0)
	CPC  R22,R26
	LDI  R26,BYTE4(@0)
	CPC  R23,R26
	.ENDM

	.MACRO __CPD2N
	CPI  R26,LOW(@0)
	LDI  R30,HIGH(@0)
	CPC  R27,R30
	LDI  R30,BYTE3(@0)
	CPC  R24,R30
	LDI  R30,BYTE4(@0)
	CPC  R25,R30
	.ENDM

	.MACRO __CPWRR
	CP   R@0,R@2
	CPC  R@1,R@3
	.ENDM

	.MACRO __CPWRN
	CPI  R@0,LOW(@2)
	LDI  R30,HIGH(@2)
	CPC  R@1,R30
	.ENDM

	.MACRO __ADDB1MN
	SUBI R30,LOW(-@0-(@1))
	.ENDM

	.MACRO __ADDB2MN
	SUBI R26,LOW(-@0-(@1))
	.ENDM

	.MACRO __ADDW1MN
	SUBI R30,LOW(-@0-(@1))
	SBCI R31,HIGH(-@0-(@1))
	.ENDM

	.MACRO __ADDW2MN
	SUBI R26,LOW(-@0-(@1))
	SBCI R27,HIGH(-@0-(@1))
	.ENDM

	.MACRO __ADDW1FN
	SUBI R30,LOW(-2*@0-(@1))
	SBCI R31,HIGH(-2*@0-(@1))
	.ENDM

	.MACRO __ADDD1FN
	SUBI R30,LOW(-2*@0-(@1))
	SBCI R31,HIGH(-2*@0-(@1))
	SBCI R22,BYTE3(-2*@0-(@1))
	.ENDM

	.MACRO __ADDD1N
	SUBI R30,LOW(-@0)
	SBCI R31,HIGH(-@0)
	SBCI R22,BYTE3(-@0)
	SBCI R23,BYTE4(-@0)
	.ENDM

	.MACRO __ADDD2N
	SUBI R26,LOW(-@0)
	SBCI R27,HIGH(-@0)
	SBCI R24,BYTE3(-@0)
	SBCI R25,BYTE4(-@0)
	.ENDM

	.MACRO __SUBD1N
	SUBI R30,LOW(@0)
	SBCI R31,HIGH(@0)
	SBCI R22,BYTE3(@0)
	SBCI R23,BYTE4(@0)
	.ENDM

	.MACRO __SUBD2N
	SUBI R26,LOW(@0)
	SBCI R27,HIGH(@0)
	SBCI R24,BYTE3(@0)
	SBCI R25,BYTE4(@0)
	.ENDM

	.MACRO __ANDBMNN
	LDS  R30,@0+(@1)
	ANDI R30,LOW(@2)
	STS  @0+(@1),R30
	.ENDM

	.MACRO __ANDWMNN
	LDS  R30,@0+(@1)
	ANDI R30,LOW(@2)
	STS  @0+(@1),R30
	LDS  R30,@0+(@1)+1
	ANDI R30,HIGH(@2)
	STS  @0+(@1)+1,R30
	.ENDM

	.MACRO __ANDD1N
	ANDI R30,LOW(@0)
	ANDI R31,HIGH(@0)
	ANDI R22,BYTE3(@0)
	ANDI R23,BYTE4(@0)
	.ENDM

	.MACRO __ANDD2N
	ANDI R26,LOW(@0)
	ANDI R27,HIGH(@0)
	ANDI R24,BYTE3(@0)
	ANDI R25,BYTE4(@0)
	.ENDM

	.MACRO __ORBMNN
	LDS  R30,@0+(@1)
	ORI  R30,LOW(@2)
	STS  @0+(@1),R30
	.ENDM

	.MACRO __ORWMNN
	LDS  R30,@0+(@1)
	ORI  R30,LOW(@2)
	STS  @0+(@1),R30
	LDS  R30,@0+(@1)+1
	ORI  R30,HIGH(@2)
	STS  @0+(@1)+1,R30
	.ENDM

	.MACRO __ORD1N
	ORI  R30,LOW(@0)
	ORI  R31,HIGH(@0)
	ORI  R22,BYTE3(@0)
	ORI  R23,BYTE4(@0)
	.ENDM

	.MACRO __ORD2N
	ORI  R26,LOW(@0)
	ORI  R27,HIGH(@0)
	ORI  R24,BYTE3(@0)
	ORI  R25,BYTE4(@0)
	.ENDM

	.MACRO __DELAY_USB
	LDI  R24,LOW(@0)
__DELAY_USB_LOOP:
	DEC  R24
	BRNE __DELAY_USB_LOOP
	.ENDM

	.MACRO __DELAY_USW
	LDI  R24,LOW(@0)
	LDI  R25,HIGH(@0)
__DELAY_USW_LOOP:
	SBIW R24,1
	BRNE __DELAY_USW_LOOP
	.ENDM

	.MACRO __GETW1P
	LD   R30,X+
	LD   R31,X
	SBIW R26,1
	.ENDM

	.MACRO __GETD1S
	LDD  R30,Y+@0
	LDD  R31,Y+@0+1
	LDD  R22,Y+@0+2
	LDD  R23,Y+@0+3
	.ENDM

	.MACRO __GETD2S
	LDD  R26,Y+@0
	LDD  R27,Y+@0+1
	LDD  R24,Y+@0+2
	LDD  R25,Y+@0+3
	.ENDM

	.MACRO __GETD1P_INC
	LD   R30,X+
	LD   R31,X+
	LD   R22,X+
	LD   R23,X+
	.ENDM

	.MACRO __GETD1P_DEC
	LD   R23,-X
	LD   R22,-X
	LD   R31,-X
	LD   R30,-X
	.ENDM

	.MACRO __PUTDP1
	ST   X+,R30
	ST   X+,R31
	ST   X+,R22
	ST   X,R23
	.ENDM

	.MACRO __PUTDP1_DEC
	ST   -X,R23
	ST   -X,R22
	ST   -X,R31
	ST   -X,R30
	.ENDM

	.MACRO __PUTD1S
	STD  Y+@0,R30
	STD  Y+@0+1,R31
	STD  Y+@0+2,R22
	STD  Y+@0+3,R23
	.ENDM

	.MACRO __PUTD2S
	STD  Y+@0,R26
	STD  Y+@0+1,R27
	STD  Y+@0+2,R24
	STD  Y+@0+3,R25
	.ENDM

	.MACRO __PUTDZ2
	STD  Z+@0,R26
	STD  Z+@0+1,R27
	STD  Z+@0+2,R24
	STD  Z+@0+3,R25
	.ENDM

	.MACRO __CLRD1S
	STD  Y+@0,R30
	STD  Y+@0+1,R30
	STD  Y+@0+2,R30
	STD  Y+@0+3,R30
	.ENDM

	.MACRO __CPD10
	SBIW R30,0
	SBCI R22,0
	SBCI R23,0
	.ENDM

	.MACRO __CPD20
	SBIW R26,0
	SBCI R24,0
	SBCI R25,0
	.ENDM

	.MACRO __ADDD12
	ADD  R30,R26
	ADC  R31,R27
	ADC  R22,R24
	ADC  R23,R25
	.ENDM

	.MACRO __ADDD21
	ADD  R26,R30
	ADC  R27,R31
	ADC  R24,R22
	ADC  R25,R23
	.ENDM

	.MACRO __SUBD12
	SUB  R30,R26
	SBC  R31,R27
	SBC  R22,R24
	SBC  R23,R25
	.ENDM

	.MACRO __SUBD21
	SUB  R26,R30
	SBC  R27,R31
	SBC  R24,R22
	SBC  R25,R23
	.ENDM

	.MACRO __ANDD12
	AND  R30,R26
	AND  R31,R27
	AND  R22,R24
	AND  R23,R25
	.ENDM

	.MACRO __ORD12
	OR   R30,R26
	OR   R31,R27
	OR   R22,R24
	OR   R23,R25
	.ENDM

	.MACRO __XORD12
	EOR  R30,R26
	EOR  R31,R27
	EOR  R22,R24
	EOR  R23,R25
	.ENDM

	.MACRO __XORD21
	EOR  R26,R30
	EOR  R27,R31
	EOR  R24,R22
	EOR  R25,R23
	.ENDM

	.MACRO __COMD1
	COM  R30
	COM  R31
	COM  R22
	COM  R23
	.ENDM

	.MACRO __MULD2_2
	LSL  R26
	ROL  R27
	ROL  R24
	ROL  R25
	.ENDM

	.MACRO __LSRD1
	LSR  R23
	ROR  R22
	ROR  R31
	ROR  R30
	.ENDM

	.MACRO __LSLD1
	LSL  R30
	ROL  R31
	ROL  R22
	ROL  R23
	.ENDM

	.MACRO __ASRB4
	ASR  R30
	ASR  R30
	ASR  R30
	ASR  R30
	.ENDM

	.MACRO __ASRW8
	MOV  R30,R31
	CLR  R31
	SBRC R30,7
	SER  R31
	.ENDM

	.MACRO __LSRD16
	MOV  R30,R22
	MOV  R31,R23
	LDI  R22,0
	LDI  R23,0
	.ENDM

	.MACRO __LSLD16
	MOV  R22,R30
	MOV  R23,R31
	LDI  R30,0
	LDI  R31,0
	.ENDM

	.MACRO __CWD1
	MOV  R22,R31
	ADD  R22,R22
	SBC  R22,R22
	MOV  R23,R22
	.ENDM

	.MACRO __CWD2
	MOV  R24,R27
	ADD  R24,R24
	SBC  R24,R24
	MOV  R25,R24
	.ENDM

	.MACRO __SETMSD1
	SER  R31
	SER  R22
	SER  R23
	.ENDM

	.MACRO __ADDW1R15
	CLR  R0
	ADD  R30,R15
	ADC  R31,R0
	.ENDM

	.MACRO __ADDW2R15
	CLR  R0
	ADD  R26,R15
	ADC  R27,R0
	.ENDM

	.MACRO __EQB12
	CP   R30,R26
	LDI  R30,1
	BREQ PC+2
	CLR  R30
	.ENDM

	.MACRO __NEB12
	CP   R30,R26
	LDI  R30,1
	BRNE PC+2
	CLR  R30
	.ENDM

	.MACRO __LEB12
	CP   R30,R26
	LDI  R30,1
	BRGE PC+2
	CLR  R30
	.ENDM

	.MACRO __GEB12
	CP   R26,R30
	LDI  R30,1
	BRGE PC+2
	CLR  R30
	.ENDM

	.MACRO __LTB12
	CP   R26,R30
	LDI  R30,1
	BRLT PC+2
	CLR  R30
	.ENDM

	.MACRO __GTB12
	CP   R30,R26
	LDI  R30,1
	BRLT PC+2
	CLR  R30
	.ENDM

	.MACRO __LEB12U
	CP   R30,R26
	LDI  R30,1
	BRSH PC+2
	CLR  R30
	.ENDM

	.MACRO __GEB12U
	CP   R26,R30
	LDI  R30,1
	BRSH PC+2
	CLR  R30
	.ENDM

	.MACRO __LTB12U
	CP   R26,R30
	LDI  R30,1
	BRLO PC+2
	CLR  R30
	.ENDM

	.MACRO __GTB12U
	CP   R30,R26
	LDI  R30,1
	BRLO PC+2
	CLR  R30
	.ENDM

	.MACRO __CPW01
	CLR  R0
	CP   R0,R30
	CPC  R0,R31
	.ENDM

	.MACRO __CPW02
	CLR  R0
	CP   R0,R26
	CPC  R0,R27
	.ENDM

	.MACRO __CPD12
	CP   R30,R26
	CPC  R31,R27
	CPC  R22,R24
	CPC  R23,R25
	.ENDM

	.MACRO __CPD21
	CP   R26,R30
	CPC  R27,R31
	CPC  R24,R22
	CPC  R25,R23
	.ENDM

	.MACRO __BSTB1
	CLT
	TST  R30
	BREQ PC+2
	SET
	.ENDM

	.MACRO __LNEGB1
	TST  R30
	LDI  R30,1
	BREQ PC+2
	CLR  R30
	.ENDM

	.MACRO __LNEGW1
	OR   R30,R31
	LDI  R30,1
	BREQ PC+2
	LDI  R30,0
	.ENDM

	.MACRO __POINTB1MN
	LDI  R30,LOW(@0+(@1))
	.ENDM

	.MACRO __POINTW1MN
	LDI  R30,LOW(@0+(@1))
	LDI  R31,HIGH(@0+(@1))
	.ENDM

	.MACRO __POINTD1M
	LDI  R30,LOW(@0)
	LDI  R31,HIGH(@0)
	LDI  R22,BYTE3(@0)
	LDI  R23,BYTE4(@0)
	.ENDM

	.MACRO __POINTW1FN
	LDI  R30,LOW(2*@0+(@1))
	LDI  R31,HIGH(2*@0+(@1))
	.ENDM

	.MACRO __POINTD1FN
	LDI  R30,LOW(2*@0+(@1))
	LDI  R31,HIGH(2*@0+(@1))
	LDI  R22,BYTE3(2*@0+(@1))
	LDI  R23,BYTE4(2*@0+(@1))
	.ENDM

	.MACRO __POINTB2MN
	LDI  R26,LOW(@0+(@1))
	.ENDM

	.MACRO __POINTW2MN
	LDI  R26,LOW(@0+(@1))
	LDI  R27,HIGH(@0+(@1))
	.ENDM

	.MACRO __POINTD2M
	LDI  R26,LOW(@0)
	LDI  R27,HIGH(@0)
	LDI  R24,BYTE3(@0)
	LDI  R25,BYTE4(@0)
	.ENDM

	.MACRO __POINTW2FN
	LDI  R26,LOW(2*@0+(@1))
	LDI  R27,HIGH(2*@0+(@1))
	.ENDM

	.MACRO __POINTD2FN
	LDI  R26,LOW(2*@0+(@1))
	LDI  R27,HIGH(2*@0+(@1))
	LDI  R24,BYTE3(2*@0+(@1))
	LDI  R25,BYTE4(2*@0+(@1))
	.ENDM

	.MACRO __POINTBRM
	LDI  R@0,LOW(@1)
	.ENDM

	.MACRO __POINTWRM
	LDI  R@0,LOW(@2)
	LDI  R@1,HIGH(@2)
	.ENDM

	.MACRO __POINTBRMN
	LDI  R@0,LOW(@1+(@2))
	.ENDM

	.MACRO __POINTWRMN
	LDI  R@0,LOW(@2+(@3))
	LDI  R@1,HIGH(@2+(@3))
	.ENDM

	.MACRO __POINTWRFN
	LDI  R@0,LOW(@2*2+(@3))
	LDI  R@1,HIGH(@2*2+(@3))
	.ENDM

	.MACRO __GETD1N
	LDI  R30,LOW(@0)
	LDI  R31,HIGH(@0)
	LDI  R22,BYTE3(@0)
	LDI  R23,BYTE4(@0)
	.ENDM

	.MACRO __GETD2N
	LDI  R26,LOW(@0)
	LDI  R27,HIGH(@0)
	LDI  R24,BYTE3(@0)
	LDI  R25,BYTE4(@0)
	.ENDM

	.MACRO __GETB1MN
	LDS  R30,@0+(@1)
	.ENDM

	.MACRO __GETB1HMN
	LDS  R31,@0+(@1)
	.ENDM

	.MACRO __GETW1MN
	LDS  R30,@0+(@1)
	LDS  R31,@0+(@1)+1
	.ENDM

	.MACRO __GETD1MN
	LDS  R30,@0+(@1)
	LDS  R31,@0+(@1)+1
	LDS  R22,@0+(@1)+2
	LDS  R23,@0+(@1)+3
	.ENDM

	.MACRO __GETBRMN
	LDS  R@0,@1+(@2)
	.ENDM

	.MACRO __GETWRMN
	LDS  R@0,@2+(@3)
	LDS  R@1,@2+(@3)+1
	.ENDM

	.MACRO __GETWRZ
	LDD  R@0,Z+@2
	LDD  R@1,Z+@2+1
	.ENDM

	.MACRO __GETD2Z
	LDD  R26,Z+@0
	LDD  R27,Z+@0+1
	LDD  R24,Z+@0+2
	LDD  R25,Z+@0+3
	.ENDM

	.MACRO __GETB2MN
	LDS  R26,@0+(@1)
	.ENDM

	.MACRO __GETW2MN
	LDS  R26,@0+(@1)
	LDS  R27,@0+(@1)+1
	.ENDM

	.MACRO __GETD2MN
	LDS  R26,@0+(@1)
	LDS  R27,@0+(@1)+1
	LDS  R24,@0+(@1)+2
	LDS  R25,@0+(@1)+3
	.ENDM

	.MACRO __PUTB1MN
	STS  @0+(@1),R30
	.ENDM

	.MACRO __PUTW1MN
	STS  @0+(@1),R30
	STS  @0+(@1)+1,R31
	.ENDM

	.MACRO __PUTD1MN
	STS  @0+(@1),R30
	STS  @0+(@1)+1,R31
	STS  @0+(@1)+2,R22
	STS  @0+(@1)+3,R23
	.ENDM

	.MACRO __PUTB1EN
	LDI  R26,LOW(@0+(@1))
	LDI  R27,HIGH(@0+(@1))
	CALL __EEPROMWRB
	.ENDM

	.MACRO __PUTW1EN
	LDI  R26,LOW(@0+(@1))
	LDI  R27,HIGH(@0+(@1))
	CALL __EEPROMWRW
	.ENDM

	.MACRO __PUTD1EN
	LDI  R26,LOW(@0+(@1))
	LDI  R27,HIGH(@0+(@1))
	CALL __EEPROMWRD
	.ENDM

	.MACRO __PUTBR0MN
	STS  @0+(@1),R0
	.ENDM

	.MACRO __PUTBMRN
	STS  @0+(@1),R@2
	.ENDM

	.MACRO __PUTWMRN
	STS  @0+(@1),R@2
	STS  @0+(@1)+1,R@3
	.ENDM

	.MACRO __PUTBZR
	STD  Z+@1,R@0
	.ENDM

	.MACRO __PUTWZR
	STD  Z+@2,R@0
	STD  Z+@2+1,R@1
	.ENDM

	.MACRO __GETW1R
	MOV  R30,R@0
	MOV  R31,R@1
	.ENDM

	.MACRO __GETW2R
	MOV  R26,R@0
	MOV  R27,R@1
	.ENDM

	.MACRO __GETWRN
	LDI  R@0,LOW(@2)
	LDI  R@1,HIGH(@2)
	.ENDM

	.MACRO __PUTW1R
	MOV  R@0,R30
	MOV  R@1,R31
	.ENDM

	.MACRO __PUTW2R
	MOV  R@0,R26
	MOV  R@1,R27
	.ENDM

	.MACRO __ADDWRN
	SUBI R@0,LOW(-@2)
	SBCI R@1,HIGH(-@2)
	.ENDM

	.MACRO __ADDWRR
	ADD  R@0,R@2
	ADC  R@1,R@3
	.ENDM

	.MACRO __SUBWRN
	SUBI R@0,LOW(@2)
	SBCI R@1,HIGH(@2)
	.ENDM

	.MACRO __SUBWRR
	SUB  R@0,R@2
	SBC  R@1,R@3
	.ENDM

	.MACRO __ANDWRN
	ANDI R@0,LOW(@2)
	ANDI R@1,HIGH(@2)
	.ENDM

	.MACRO __ANDWRR
	AND  R@0,R@2
	AND  R@1,R@3
	.ENDM

	.MACRO __ORWRN
	ORI  R@0,LOW(@2)
	ORI  R@1,HIGH(@2)
	.ENDM

	.MACRO __ORWRR
	OR   R@0,R@2
	OR   R@1,R@3
	.ENDM

	.MACRO __EORWRR
	EOR  R@0,R@2
	EOR  R@1,R@3
	.ENDM

	.MACRO __GETWRS
	LDD  R@0,Y+@2
	LDD  R@1,Y+@2+1
	.ENDM

	.MACRO __PUTBSR
	STD  Y+@1,R@0
	.ENDM

	.MACRO __PUTWSR
	STD  Y+@2,R@0
	STD  Y+@2+1,R@1
	.ENDM

	.MACRO __MOVEWRR
	MOV  R@0,R@2
	MOV  R@1,R@3
	.ENDM

	.MACRO __INWR
	IN   R@0,@2
	IN   R@1,@2+1
	.ENDM

	.MACRO __OUTWR
	OUT  @2+1,R@1
	OUT  @2,R@0
	.ENDM

	.MACRO __CALL1MN
	LDS  R30,@0+(@1)
	LDS  R31,@0+(@1)+1
	ICALL
	.ENDM

	.MACRO __CALL1FN
	LDI  R30,LOW(2*@0+(@1))
	LDI  R31,HIGH(2*@0+(@1))
	CALL __GETW1PF
	ICALL
	.ENDM

	.MACRO __CALL2EN
	PUSH R26
	PUSH R27
	LDI  R26,LOW(@0+(@1))
	LDI  R27,HIGH(@0+(@1))
	CALL __EEPROMRDW
	POP  R27
	POP  R26
	ICALL
	.ENDM

	.MACRO __CALL2EX
	SUBI R26,LOW(-@0)
	SBCI R27,HIGH(-@0)
	CALL __EEPROMRDD
	ICALL
	.ENDM

	.MACRO __GETW1STACK
	IN   R30,SPL
	IN   R31,SPH
	ADIW R30,@0+1
	LD   R0,Z+
	LD   R31,Z
	MOV  R30,R0
	.ENDM

	.MACRO __GETD1STACK
	IN   R30,SPL
	IN   R31,SPH
	ADIW R30,@0+1
	LD   R0,Z+
	LD   R1,Z+
	LD   R22,Z
	MOVW R30,R0
	.ENDM

	.MACRO __NBST
	BST  R@0,@1
	IN   R30,SREG
	LDI  R31,0x40
	EOR  R30,R31
	OUT  SREG,R30
	.ENDM


	.MACRO __PUTB1SN
	LDD  R26,Y+@0
	LDD  R27,Y+@0+1
	SUBI R26,LOW(-@1)
	SBCI R27,HIGH(-@1)
	ST   X,R30
	.ENDM

	.MACRO __PUTW1SN
	LDD  R26,Y+@0
	LDD  R27,Y+@0+1
	SUBI R26,LOW(-@1)
	SBCI R27,HIGH(-@1)
	ST   X+,R30
	ST   X,R31
	.ENDM

	.MACRO __PUTD1SN
	LDD  R26,Y+@0
	LDD  R27,Y+@0+1
	SUBI R26,LOW(-@1)
	SBCI R27,HIGH(-@1)
	ST   X+,R30
	ST   X+,R31
	ST   X+,R22
	ST   X,R23
	.ENDM

	.MACRO __PUTB1SNS
	LDD  R26,Y+@0
	LDD  R27,Y+@0+1
	ADIW R26,@1
	ST   X,R30
	.ENDM

	.MACRO __PUTW1SNS
	LDD  R26,Y+@0
	LDD  R27,Y+@0+1
	ADIW R26,@1
	ST   X+,R30
	ST   X,R31
	.ENDM

	.MACRO __PUTD1SNS
	LDD  R26,Y+@0
	LDD  R27,Y+@0+1
	ADIW R26,@1
	ST   X+,R30
	ST   X+,R31
	ST   X+,R22
	ST   X,R23
	.ENDM

	.MACRO __PUTB1PMN
	LDS  R26,@0
	LDS  R27,@0+1
	SUBI R26,LOW(-@1)
	SBCI R27,HIGH(-@1)
	ST   X,R30
	.ENDM

	.MACRO __PUTW1PMN
	LDS  R26,@0
	LDS  R27,@0+1
	SUBI R26,LOW(-@1)
	SBCI R27,HIGH(-@1)
	ST   X+,R30
	ST   X,R31
	.ENDM

	.MACRO __PUTD1PMN
	LDS  R26,@0
	LDS  R27,@0+1
	SUBI R26,LOW(-@1)
	SBCI R27,HIGH(-@1)
	ST   X+,R30
	ST   X+,R31
	ST   X+,R22
	ST   X,R23
	.ENDM

	.MACRO __PUTB1PMNS
	LDS  R26,@0
	LDS  R27,@0+1
	ADIW R26,@1
	ST   X,R30
	.ENDM

	.MACRO __PUTW1PMNS
	LDS  R26,@0
	LDS  R27,@0+1
	ADIW R26,@1
	ST   X+,R30
	ST   X,R31
	.ENDM

	.MACRO __PUTD1PMNS
	LDS  R26,@0
	LDS  R27,@0+1
	ADIW R26,@1
	ST   X+,R30
	ST   X+,R31
	ST   X+,R22
	ST   X,R23
	.ENDM

	.MACRO __PUTB1RN
	MOVW R26,R@0
	SUBI R26,LOW(-@1)
	SBCI R27,HIGH(-@1)
	ST   X,R30
	.ENDM

	.MACRO __PUTW1RN
	MOVW R26,R@0
	SUBI R26,LOW(-@1)
	SBCI R27,HIGH(-@1)
	ST   X+,R30
	ST   X,R31
	.ENDM

	.MACRO __PUTD1RN
	MOVW R26,R@0
	SUBI R26,LOW(-@1)
	SBCI R27,HIGH(-@1)
	ST   X+,R30
	ST   X+,R31
	ST   X+,R22
	ST   X,R23
	.ENDM

	.MACRO __PUTB1RNS
	MOVW R26,R@0
	ADIW R26,@1
	ST   X,R30
	.ENDM

	.MACRO __PUTW1RNS
	MOVW R26,R@0
	ADIW R26,@1
	ST   X+,R30
	ST   X,R31
	.ENDM

	.MACRO __PUTD1RNS
	MOVW R26,R@0
	ADIW R26,@1
	ST   X+,R30
	ST   X+,R31
	ST   X+,R22
	ST   X,R23
	.ENDM

	.MACRO __PUTB1RON
	MOV  R26,R@0
	MOV  R27,R@1
	SUBI R26,LOW(-@2)
	SBCI R27,HIGH(-@2)
	ST   X,R30
	.ENDM

	.MACRO __PUTW1RON
	MOV  R26,R@0
	MOV  R27,R@1
	SUBI R26,LOW(-@2)
	SBCI R27,HIGH(-@2)
	ST   X+,R30
	ST   X,R31
	.ENDM

	.MACRO __PUTD1RON
	MOV  R26,R@0
	MOV  R27,R@1
	SUBI R26,LOW(-@2)
	SBCI R27,HIGH(-@2)
	ST   X+,R30
	ST   X+,R31
	ST   X+,R22
	ST   X,R23
	.ENDM

	.MACRO __PUTB1RONS
	MOV  R26,R@0
	MOV  R27,R@1
	ADIW R26,@2
	ST   X,R30
	.ENDM

	.MACRO __PUTW1RONS
	MOV  R26,R@0
	MOV  R27,R@1
	ADIW R26,@2
	ST   X+,R30
	ST   X,R31
	.ENDM

	.MACRO __PUTD1RONS
	MOV  R26,R@0
	MOV  R27,R@1
	ADIW R26,@2
	ST   X+,R30
	ST   X+,R31
	ST   X+,R22
	ST   X,R23
	.ENDM


	.MACRO __GETB1SX
	MOVW R30,R28
	SUBI R30,LOW(-@0)
	SBCI R31,HIGH(-@0)
	LD   R30,Z
	.ENDM

	.MACRO __GETB1HSX
	MOVW R30,R28
	SUBI R30,LOW(-@0)
	SBCI R31,HIGH(-@0)
	LD   R31,Z
	.ENDM

	.MACRO __GETW1SX
	MOVW R30,R28
	SUBI R30,LOW(-@0)
	SBCI R31,HIGH(-@0)
	CALL __GETW1Z
	.ENDM

	.MACRO __GETD1SX
	MOVW R30,R28
	SUBI R30,LOW(-@0)
	SBCI R31,HIGH(-@0)
	CALL __GETD1Z
	.ENDM

	.MACRO __GETB2SX
	MOVW R26,R28
	SUBI R26,LOW(-@0)
	SBCI R27,HIGH(-@0)
	LD   R26,X
	.ENDM

	.MACRO __GETW2SX
	MOVW R26,R28
	SUBI R26,LOW(-@0)
	SBCI R27,HIGH(-@0)
	CALL __GETW2X
	.ENDM

	.MACRO __GETD2SX
	MOVW R26,R28
	SUBI R26,LOW(-@0)
	SBCI R27,HIGH(-@0)
	CALL __GETD2X
	.ENDM

	.MACRO __GETBRSX
	MOVW R30,R28
	SUBI R30,LOW(-@1)
	SBCI R31,HIGH(-@1)
	LD   R@0,Z
	.ENDM

	.MACRO __GETWRSX
	MOVW R30,R28
	SUBI R30,LOW(-@2)
	SBCI R31,HIGH(-@2)
	LD   R@0,Z+
	LD   R@1,Z
	.ENDM

	.MACRO __GETBRSX2
	MOVW R26,R28
	SUBI R26,LOW(-@1)
	SBCI R27,HIGH(-@1)
	LD   R@0,X
	.ENDM

	.MACRO __GETWRSX2
	MOVW R26,R28
	SUBI R26,LOW(-@2)
	SBCI R27,HIGH(-@2)
	LD   R@0,X+
	LD   R@1,X
	.ENDM

	.MACRO __LSLW8SX
	MOVW R30,R28
	SUBI R30,LOW(-@0)
	SBCI R31,HIGH(-@0)
	LD   R31,Z
	CLR  R30
	.ENDM

	.MACRO __PUTB1SX
	MOVW R26,R28
	SUBI R26,LOW(-@0)
	SBCI R27,HIGH(-@0)
	ST   X,R30
	.ENDM

	.MACRO __PUTW1SX
	MOVW R26,R28
	SUBI R26,LOW(-@0)
	SBCI R27,HIGH(-@0)
	ST   X+,R30
	ST   X,R31
	.ENDM

	.MACRO __PUTD1SX
	MOVW R26,R28
	SUBI R26,LOW(-@0)
	SBCI R27,HIGH(-@0)
	ST   X+,R30
	ST   X+,R31
	ST   X+,R22
	ST   X,R23
	.ENDM

	.MACRO __CLRW1SX
	MOVW R26,R28
	SUBI R26,LOW(-@0)
	SBCI R27,HIGH(-@0)
	ST   X+,R30
	ST   X,R30
	.ENDM

	.MACRO __CLRD1SX
	MOVW R26,R28
	SUBI R26,LOW(-@0)
	SBCI R27,HIGH(-@0)
	ST   X+,R30
	ST   X+,R30
	ST   X+,R30
	ST   X,R30
	.ENDM

	.MACRO __PUTB2SX
	MOVW R30,R28
	SUBI R30,LOW(-@0)
	SBCI R31,HIGH(-@0)
	ST   Z,R26
	.ENDM

	.MACRO __PUTW2SX
	MOVW R30,R28
	SUBI R30,LOW(-@0)
	SBCI R31,HIGH(-@0)
	ST   Z+,R26
	ST   Z,R27
	.ENDM

	.MACRO __PUTD2SX
	MOVW R30,R28
	SUBI R30,LOW(-@0)
	SBCI R31,HIGH(-@0)
	ST   Z+,R26
	ST   Z+,R27
	ST   Z+,R24
	ST   Z,R25
	.ENDM

	.MACRO __PUTBSRX
	MOVW R30,R28
	SUBI R30,LOW(-@1)
	SBCI R31,HIGH(-@1)
	ST   Z,R@0
	.ENDM

	.MACRO __PUTWSRX
	MOVW R30,R28
	SUBI R30,LOW(-@2)
	SBCI R31,HIGH(-@2)
	ST   Z+,R@0
	ST   Z,R@1
	.ENDM

	.MACRO __PUTB1SNX
	MOVW R26,R28
	SUBI R26,LOW(-@0)
	SBCI R27,HIGH(-@0)
	LD   R0,X+
	LD   R27,X
	MOV  R26,R0
	SUBI R26,LOW(-@1)
	SBCI R27,HIGH(-@1)
	ST   X,R30
	.ENDM

	.MACRO __PUTW1SNX
	MOVW R26,R28
	SUBI R26,LOW(-@0)
	SBCI R27,HIGH(-@0)
	LD   R0,X+
	LD   R27,X
	MOV  R26,R0
	SUBI R26,LOW(-@1)
	SBCI R27,HIGH(-@1)
	ST   X+,R30
	ST   X,R31
	.ENDM

	.MACRO __PUTD1SNX
	MOVW R26,R28
	SUBI R26,LOW(-@0)
	SBCI R27,HIGH(-@0)
	LD   R0,X+
	LD   R27,X
	MOV  R26,R0
	SUBI R26,LOW(-@1)
	SBCI R27,HIGH(-@1)
	ST   X+,R30
	ST   X+,R31
	ST   X+,R22
	ST   X,R23
	.ENDM

	.MACRO __MULBRR
	MULS R@0,R@1
	MOVW R30,R0
	.ENDM

	.MACRO __MULBRRU
	MUL  R@0,R@1
	MOVW R30,R0
	.ENDM

	.MACRO __MULBRR0
	MULS R@0,R@1
	.ENDM

	.MACRO __MULBRRU0
	MUL  R@0,R@1
	.ENDM

	.MACRO __MULBNWRU
	LDI  R26,@2
	MUL  R26,R@0
	MOVW R30,R0
	MUL  R26,R@1
	ADD  R31,R0
	.ENDM

;NAME DEFINITIONS FOR GLOBAL VARIABLES ALLOCATED TO REGISTERS
	.DEF _PtrToStrChar=R4
	.DEF _PtrToStrChar_msb=R5
	.DEF _ClearToSend=R7
	.DEF _count=R6
	.DEF _SPI_flag=R9
	.DEF _Str=R8

	.CSEG
	.ORG 0x00

;START OF CODE MARKER
__START_OF_CODE:

;INTERRUPT VECTORS
	JMP  __RESET
	JMP  0x00
	JMP  0x00
	JMP  0x00
	JMP  0x00
	JMP  0x00
	JMP  0x00
	JMP  0x00
	JMP  0x00
	JMP  0x00
	JMP  0x00
	JMP  0x00
	JMP  0x00
	JMP  0x00
	JMP  0x00
	JMP  0x00
	JMP  0x00
	JMP  _spi_isr
	JMP  0x00
	JMP  0x00
	JMP  0x00
	JMP  0x00
	JMP  0x00
	JMP  0x00
	JMP  0x00
	JMP  0x00
	JMP  0x00
	JMP  0x00
	JMP  0x00
	JMP  0x00
	JMP  0x00
	JMP  0x00
	JMP  0x00
	JMP  0x00
	JMP  0x00

;GLOBAL REGISTER VARIABLES INITIALIZATION
__REG_VARS:
	.DB  0x1

_0x0:
	.DB  0x20,0x20,0x20,0x20,0x20,0x20,0x20,0x20
	.DB  0x20,0x20,0x20,0x20,0x20,0x20,0x20,0x20
	.DB  0x20,0x20,0x20,0x20,0x0

__GLOBAL_INI_TBL:
	.DW  0x01
	.DW  0x07
	.DW  __REG_VARS*2

	.DW  0x15
	.DW  _0xA
	.DW  _0x0*2

	.DW  0x10
	.DW  _0x48
	.DW  _0x0*2+5

_0xFFFFFFFF:
	.DW  0

#define __GLOBAL_INI_TBL_PRESENT 1

__RESET:
	CLI
	CLR  R30
	OUT  EECR,R30

;INTERRUPT VECTORS ARE PLACED
;AT THE START OF FLASH
	LDI  R31,1
	OUT  MCUCR,R31
	OUT  MCUCR,R30
	STS  XMCRB,R30

;CLEAR R2-R14
	LDI  R24,(14-2)+1
	LDI  R26,2
	CLR  R27
__CLEAR_REG:
	ST   X+,R30
	DEC  R24
	BRNE __CLEAR_REG

;CLEAR SRAM
	LDI  R24,LOW(__CLEAR_SRAM_SIZE)
	LDI  R25,HIGH(__CLEAR_SRAM_SIZE)
	LDI  R26,LOW(__SRAM_START)
	LDI  R27,HIGH(__SRAM_START)
__CLEAR_SRAM:
	ST   X+,R30
	SBIW R24,1
	BRNE __CLEAR_SRAM

;GLOBAL VARIABLES INITIALIZATION
	LDI  R30,LOW(__GLOBAL_INI_TBL*2)
	LDI  R31,HIGH(__GLOBAL_INI_TBL*2)
__GLOBAL_INI_NEXT:
	LPM  R24,Z+
	LPM  R25,Z+
	SBIW R24,0
	BREQ __GLOBAL_INI_END
	LPM  R26,Z+
	LPM  R27,Z+
	LPM  R0,Z+
	LPM  R1,Z+
	MOVW R22,R30
	MOVW R30,R0
__GLOBAL_INI_LOOP:
	LPM  R0,Z+
	ST   X+,R0
	SBIW R24,1
	BRNE __GLOBAL_INI_LOOP
	MOVW R30,R22
	RJMP __GLOBAL_INI_NEXT
__GLOBAL_INI_END:

	OUT  RAMPZ,R24

;HARDWARE STACK POINTER INITIALIZATION
	LDI  R30,LOW(__SRAM_END-__HEAP_SIZE)
	OUT  SPL,R30
	LDI  R30,HIGH(__SRAM_END-__HEAP_SIZE)
	OUT  SPH,R30

;DATA STACK POINTER INITIALIZATION
	LDI  R28,LOW(__SRAM_START+__DSTACK_SIZE)
	LDI  R29,HIGH(__SRAM_START+__DSTACK_SIZE)

	JMP  _main

	.ESEG
	.ORG 0x00

	.DSEG
	.ORG 0x500

	.CSEG
	#ifndef __SLEEP_DEFINED__
	#define __SLEEP_DEFINED__
	.EQU __se_bit=0x20
	.EQU __sm_mask=0x1C
	.EQU __sm_powerdown=0x10
	.EQU __sm_powersave=0x18
	.EQU __sm_standby=0x14
	.EQU __sm_ext_standby=0x1C
	.EQU __sm_adc_noise_red=0x08
	.SET power_ctrl_reg=mcucr
	#endif

	.CSEG
_LCD_PORT_Init:
; .FSTART _LCD_PORT_Init
	LDI  R30,LOW(255)
	OUT  0x1A,R30
	LDI  R30,LOW(31)
	STS  100,R30
	RET
; .FEND
_LCD_Data:
; .FSTART _LCD_Data
	RCALL SUBOPT_0x0
;	ch -> R17
	ORI  R30,4
	RCALL SUBOPT_0x1
	ANDI R30,0xFD
	RCALL SUBOPT_0x1
	RCALL SUBOPT_0x2
	RJMP _0x2000002
; .FEND
_LCD_Comm:
; .FSTART _LCD_Comm
	RCALL SUBOPT_0x0
;	ch -> R17
	ANDI R30,0xFB
	RCALL SUBOPT_0x1
	ANDI R30,0xFD
	RCALL SUBOPT_0x1
	RCALL SUBOPT_0x2
	RJMP _0x2000002
; .FEND
_LCD_delay:
; .FSTART _LCD_delay
	ST   -Y,R17
	MOV  R17,R26
;	ms -> R17
	CLR  R27
	RJMP _0x2000001
; .FEND
_LCD_Pos:
; .FSTART _LCD_Pos
	ST   -Y,R17
	ST   -Y,R16
	MOV  R17,R26
	LDD  R16,Y+2
;	col -> R16
;	row -> R17
	LDI  R26,LOW(64)
	MULS R16,R26
	MOVW R30,R0
	ADD  R30,R17
	ORI  R30,0x80
	MOV  R26,R30
	RCALL _LCD_Comm
	LDD  R17,Y+1
	LDD  R16,Y+0
	ADIW R28,3
	RET
; .FEND
_LCD_Char:
; .FSTART _LCD_Char
	ST   -Y,R17
	MOV  R17,R26
;	c -> R17
	RCALL _LCD_Data
	LDI  R26,LOW(1)
	LDI  R27,0
_0x2000001:
	RCALL _delay_ms
_0x2000002:
	LD   R17,Y+
	RET
; .FEND
_LCD_Str:
; .FSTART _LCD_Str
	ST   -Y,R17
	ST   -Y,R16
	MOVW R16,R26
;	*str -> R16,R17
_0x3:
	MOVW R26,R16
	LD   R30,X
	CPI  R30,0
	BREQ _0x5
	LD   R26,X
	RCALL _LCD_Char
	__ADDWRN 16,17,1
	RJMP _0x3
_0x5:
	LD   R16,Y+
	LD   R17,Y+
	RET
; .FEND
;	*str -> R18,R19
;	loop_count -> R17

	.DSEG
_0xA:
	.BYTE 0x15

	.CSEG
_LCD_Clear:
; .FSTART _LCD_Clear
	LDI  R26,LOW(1)
	RCALL _LCD_Comm
	LDI  R26,LOW(2)
	RCALL _LCD_delay
	RET
; .FEND
_LCD_Init:
; .FSTART _LCD_Init
	RCALL _LCD_PORT_Init
	RCALL SUBOPT_0x3
	RCALL SUBOPT_0x3
	RCALL SUBOPT_0x3
	LDI  R26,LOW(14)
	RCALL _LCD_Comm
	LDI  R26,LOW(4)
	RCALL _LCD_delay
	LDI  R26,LOW(6)
	RCALL _LCD_Comm
	LDI  R26,LOW(4)
	RCALL _LCD_delay
	RCALL _LCD_Clear
	RET
; .FEND
;	p -> R17
;	p -> R17
_Init_SPI_Slave_IntContr:
; .FSTART _Init_SPI_Slave_IntContr
	SBI  0x17,3
	LDI  R30,LOW(199)
	OUT  0xD,R30
	LDI  R30,LOW(0)
	OUT  0xE,R30
	BSET 7
	RET
; .FEND
;	data -> R17
;	*TextString -> R16,R17
;	baud -> R17
;	baud -> R16
;	Int_type -> R17
;	data -> R17
;	*str -> R16,R17
;interrupt [18] void spi_isr(void)
; 0000 0011 {
_spi_isr:
; .FSTART _spi_isr
	ST   -Y,R30
	IN   R30,SREG
	ST   -Y,R30
; 0000 0012 
; 0000 0013 
; 0000 0014 
; 0000 0015 
; 0000 0016 if(SPDR == 0x0D)
	IN   R30,0xF
	CPI  R30,LOW(0xD)
	BRNE _0x3D
; 0000 0017 {
; 0000 0018 SPI_flag = 2;
	LDI  R30,LOW(2)
	MOV  R9,R30
; 0000 0019 Str = SPDR;
	IN   R8,15
; 0000 001A count = 0;
	CLR  R6
; 0000 001B 
; 0000 001C }
; 0000 001D else if(SPDR != 0)
	RJMP _0x3E
_0x3D:
	IN   R30,0xF
	CPI  R30,0
	BREQ _0x3F
; 0000 001E {
; 0000 001F SPI_flag = 1;
	LDI  R30,LOW(1)
	MOV  R9,R30
; 0000 0020 Str = SPDR;
	IN   R8,15
; 0000 0021 }
; 0000 0022 }
_0x3F:
_0x3E:
	LD   R30,Y+
	OUT  SREG,R30
	LD   R30,Y+
	RETI
; .FEND
;void main(void)
; 0000 0025 {
_main:
; .FSTART _main
; 0000 0026 bit pos = 0;
; 0000 0027 
; 0000 0028 unsigned char line = 1;
; 0000 0029 unsigned char i = 0;
; 0000 002A count = 0;
;	pos -> R15.0
;	line -> R17
;	i -> R16
	CLR  R15
	LDI  R17,1
	LDI  R16,0
	CLR  R6
; 0000 002B SPI_flag = 0;
	CLR  R9
; 0000 002C 
; 0000 002D Init_SPI_Slave_IntContr();
	RCALL _Init_SPI_Slave_IntContr
; 0000 002E LCD_Init();
	RCALL _LCD_Init
; 0000 002F while (1)
_0x40:
; 0000 0030 {
; 0000 0031 
; 0000 0032 switch(SPI_flag)
	MOV  R30,R9
	LDI  R31,0
; 0000 0033 {
; 0000 0034 case 1:
	CPI  R30,LOW(0x1)
	LDI  R26,HIGH(0x1)
	CPC  R31,R26
	BRNE _0x46
; 0000 0035 LCD_Char(Str);
	MOV  R26,R8
	RCALL _LCD_Char
; 0000 0036 SPI_flag =0;
	CLR  R9
; 0000 0037 
; 0000 0038 count++;
	INC  R6
; 0000 0039 break;
	RJMP _0x45
; 0000 003A case 2:
_0x46:
	CPI  R30,LOW(0x2)
	LDI  R26,HIGH(0x2)
	CPC  R31,R26
	BRNE _0x49
; 0000 003B 
; 0000 003C pos = ~pos;
	LDI  R30,LOW(1)
	EOR  R15,R30
; 0000 003D LCD_Pos(pos,0);
	RCALL SUBOPT_0x4
; 0000 003E LCD_Str("               ");
	__POINTW2MN _0x48,0
	RCALL _LCD_Str
; 0000 003F LCD_Pos(pos,0);
	RCALL SUBOPT_0x4
; 0000 0040 SPI_flag = 0;
	CLR  R9
; 0000 0041 
; 0000 0042 break;
; 0000 0043 
; 0000 0044 default :
_0x49:
; 0000 0045 break;
; 0000 0046 }
_0x45:
; 0000 0047 
; 0000 0048 
; 0000 0049 
; 0000 004A 
; 0000 004B 
; 0000 004C if(count == 16)
	LDI  R30,LOW(16)
	CP   R30,R6
	BRNE _0x4A
; 0000 004D {
; 0000 004E LCD_Pos(0,0);
	LDI  R30,LOW(0)
	ST   -Y,R30
	LDI  R26,LOW(0)
	RCALL _LCD_Pos
; 0000 004F count =0;
	CLR  R6
; 0000 0050 }
; 0000 0051 
; 0000 0052 }
_0x4A:
	RJMP _0x40
; 0000 0053 }
_0x4B:
	RJMP _0x4B
; .FEND

	.DSEG
_0x48:
	.BYTE 0x10

	.CSEG
;OPTIMIZER ADDED SUBROUTINE, CALLED 2 TIMES, CODE SIZE REDUCTION:1 WORDS
SUBOPT_0x0:
	ST   -Y,R17
	MOV  R17,R26
	LDS  R30,101
	RET

;OPTIMIZER ADDED SUBROUTINE, CALLED 4 TIMES, CODE SIZE REDUCTION:7 WORDS
SUBOPT_0x1:
	STS  101,R30
	LDS  R30,101
	RET

;OPTIMIZER ADDED SUBROUTINE, CALLED 2 TIMES, CODE SIZE REDUCTION:12 WORDS
SUBOPT_0x2:
	ORI  R30,1
	STS  101,R30
	__DELAY_USB 246
	OUT  0x1B,R17
	__DELAY_USB 246
	LDS  R30,101
	ANDI R30,0xFE
	STS  101,R30
	RET

;OPTIMIZER ADDED SUBROUTINE, CALLED 3 TIMES, CODE SIZE REDUCTION:4 WORDS
SUBOPT_0x3:
	LDI  R26,LOW(56)
	RCALL _LCD_Comm
	LDI  R26,LOW(4)
	RJMP _LCD_delay

;OPTIMIZER ADDED SUBROUTINE, CALLED 2 TIMES, CODE SIZE REDUCTION:3 WORDS
SUBOPT_0x4:
	LDI  R30,0
	SBRC R15,0
	LDI  R30,1
	ST   -Y,R30
	LDI  R26,LOW(0)
	RJMP _LCD_Pos

;RUNTIME LIBRARY

	.CSEG
_delay_ms:
	adiw r26,0
	breq __delay_ms1
__delay_ms0:
	wdr
	__DELAY_USW 0xE66
	sbiw r26,1
	brne __delay_ms0
__delay_ms1:
	ret

;END OF CODE MARKER
__END_OF_CODE:
