
;CodeVisionAVR C Compiler V3.45 
;(C) Copyright 1998-2021 Pavel Haiduc, HP InfoTech S.R.L.
;http://www.hpinfotech.ro

;Build configuration    : Debug
;Chip type              : ATmega128
;Program type           : Application
;Clock frequency        : 14.745600 MHz
;Memory model           : Small
;Optimize for           : Size
;(s)printf features     : int, width
;(s)scanf features      : int, width
;External RAM size      : 0
;Data Stack size        : 1024 byte(s)
;Heap size              : 0 byte(s)
;Promote 'char' to 'int': Yes
;'char' is unsigned     : Yes
;8 bit enums            : Yes
;Global 'const' stored in FLASH: No
;Enhanced function parameter passing: Mode 2
;Enhanced core instructions: On
;Automatic register allocation for global variables: On
;Smart register allocation: On

	#define _MODEL_SMALL_

	#pragma AVRPART ADMIN PART_NAME ATmega128
	#pragma AVRPART MEMORY PROG_FLASH 131072
	#pragma AVRPART MEMORY EEPROM 4096
	#pragma AVRPART MEMORY INT_SRAM SIZE 4096
	#pragma AVRPART MEMORY INT_SRAM START_ADDR 0x100

	#define CALL_SUPPORTED 1

	.LISTMAC
	.EQU UDRE=0x5
	.EQU RXC=0x7
	.EQU USR=0xB
	.EQU UDR=0xC
	.EQU SPSR=0xE
	.EQU SPDR=0xF
	.EQU EERE=0x0
	.EQU EEWE=0x1
	.EQU EEMWE=0x2
	.EQU EECR=0x1C
	.EQU EEDR=0x1D
	.EQU EEARL=0x1E
	.EQU EEARH=0x1F
	.EQU WDTCR=0x21
	.EQU MCUCR=0x35
	.EQU RAMPZ=0x3B
	.EQU SPL=0x3D
	.EQU SPH=0x3E
	.EQU SREG=0x3F
	.EQU XMCRA=0x6D
	.EQU XMCRB=0x6C

	.DEF R0X0=R0
	.DEF R0X1=R1
	.DEF R0X2=R2
	.DEF R0X3=R3
	.DEF R0X4=R4
	.DEF R0X5=R5
	.DEF R0X6=R6
	.DEF R0X7=R7
	.DEF R0X8=R8
	.DEF R0X9=R9
	.DEF R0XA=R10
	.DEF R0XB=R11
	.DEF R0XC=R12
	.DEF R0XD=R13
	.DEF R0XE=R14
	.DEF R0XF=R15
	.DEF R0X10=R16
	.DEF R0X11=R17
	.DEF R0X12=R18
	.DEF R0X13=R19
	.DEF R0X14=R20
	.DEF R0X15=R21
	.DEF R0X16=R22
	.DEF R0X17=R23
	.DEF R0X18=R24
	.DEF R0X19=R25
	.DEF R0X1A=R26
	.DEF R0X1B=R27
	.DEF R0X1C=R28
	.DEF R0X1D=R29
	.DEF R0X1E=R30
	.DEF R0X1F=R31

	.EQU __SRAM_START=0x0100
	.EQU __SRAM_END=0x10FF
	.EQU __DSTACK_SIZE=0x0400
	.EQU __HEAP_SIZE=0x0000
	.EQU __CLEAR_SRAM_SIZE=__SRAM_END-__SRAM_START+1

	.MACRO __CPD1N
	CPI  R30,LOW(@0)
	LDI  R26,HIGH(@0)
	CPC  R31,R26
	LDI  R26,BYTE3(@0)
	CPC  R22,R26
	LDI  R26,BYTE4(@0)
	CPC  R23,R26
	.ENDM

	.MACRO __CPD2N
	CPI  R26,LOW(@0)
	LDI  R30,HIGH(@0)
	CPC  R27,R30
	LDI  R30,BYTE3(@0)
	CPC  R24,R30
	LDI  R30,BYTE4(@0)
	CPC  R25,R30
	.ENDM

	.MACRO __CPWRR
	CP   R@0,R@2
	CPC  R@1,R@3
	.ENDM

	.MACRO __CPWRN
	CPI  R@0,LOW(@2)
	LDI  R30,HIGH(@2)
	CPC  R@1,R30
	.ENDM

	.MACRO __ADDB1MN
	SUBI R30,LOW(-@0-(@1))
	.ENDM

	.MACRO __ADDB2MN
	SUBI R26,LOW(-@0-(@1))
	.ENDM

	.MACRO __ADDW1MN
	SUBI R30,LOW(-@0-(@1))
	SBCI R31,HIGH(-@0-(@1))
	.ENDM

	.MACRO __ADDW2MN
	SUBI R26,LOW(-@0-(@1))
	SBCI R27,HIGH(-@0-(@1))
	.ENDM

	.MACRO __ADDW1FN
	SUBI R30,LOW(-2*@0-(@1))
	SBCI R31,HIGH(-2*@0-(@1))
	.ENDM

	.MACRO __ADDD1FN
	SUBI R30,LOW(-2*@0-(@1))
	SBCI R31,HIGH(-2*@0-(@1))
	SBCI R22,BYTE3(-2*@0-(@1))
	.ENDM

	.MACRO __ADDD1N
	SUBI R30,LOW(-@0)
	SBCI R31,HIGH(-@0)
	SBCI R22,BYTE3(-@0)
	SBCI R23,BYTE4(-@0)
	.ENDM

	.MACRO __ADDD2N
	SUBI R26,LOW(-@0)
	SBCI R27,HIGH(-@0)
	SBCI R24,BYTE3(-@0)
	SBCI R25,BYTE4(-@0)
	.ENDM

	.MACRO __SUBD1N
	SUBI R30,LOW(@0)
	SBCI R31,HIGH(@0)
	SBCI R22,BYTE3(@0)
	SBCI R23,BYTE4(@0)
	.ENDM

	.MACRO __SUBD2N
	SUBI R26,LOW(@0)
	SBCI R27,HIGH(@0)
	SBCI R24,BYTE3(@0)
	SBCI R25,BYTE4(@0)
	.ENDM

	.MACRO __ANDBMNN
	LDS  R30,@0+(@1)
	ANDI R30,LOW(@2)
	STS  @0+(@1),R30
	.ENDM

	.MACRO __ANDWMNN
	LDS  R30,@0+(@1)
	ANDI R30,LOW(@2)
	STS  @0+(@1),R30
	LDS  R30,@0+(@1)+1
	ANDI R30,HIGH(@2)
	STS  @0+(@1)+1,R30
	.ENDM

	.MACRO __ANDD1N
	ANDI R30,LOW(@0)
	ANDI R31,HIGH(@0)
	ANDI R22,BYTE3(@0)
	ANDI R23,BYTE4(@0)
	.ENDM

	.MACRO __ANDD2N
	ANDI R26,LOW(@0)
	ANDI R27,HIGH(@0)
	ANDI R24,BYTE3(@0)
	ANDI R25,BYTE4(@0)
	.ENDM

	.MACRO __ORBMNN
	LDS  R30,@0+(@1)
	ORI  R30,LOW(@2)
	STS  @0+(@1),R30
	.ENDM

	.MACRO __ORWMNN
	LDS  R30,@0+(@1)
	ORI  R30,LOW(@2)
	STS  @0+(@1),R30
	LDS  R30,@0+(@1)+1
	ORI  R30,HIGH(@2)
	STS  @0+(@1)+1,R30
	.ENDM

	.MACRO __ORD1N
	ORI  R30,LOW(@0)
	ORI  R31,HIGH(@0)
	ORI  R22,BYTE3(@0)
	ORI  R23,BYTE4(@0)
	.ENDM

	.MACRO __ORD2N
	ORI  R26,LOW(@0)
	ORI  R27,HIGH(@0)
	ORI  R24,BYTE3(@0)
	ORI  R25,BYTE4(@0)
	.ENDM

	.MACRO __DELAY_USB
	LDI  R24,LOW(@0)
__DELAY_USB_LOOP:
	DEC  R24
	BRNE __DELAY_USB_LOOP
	.ENDM

	.MACRO __DELAY_USW
	LDI  R24,LOW(@0)
	LDI  R25,HIGH(@0)
__DELAY_USW_LOOP:
	SBIW R24,1
	BRNE __DELAY_USW_LOOP
	.ENDM

	.MACRO __GETW1P
	LD   R30,X+
	LD   R31,X
	SBIW R26,1
	.ENDM

	.MACRO __GETD1S
	LDD  R30,Y+@0
	LDD  R31,Y+@0+1
	LDD  R22,Y+@0+2
	LDD  R23,Y+@0+3
	.ENDM

	.MACRO __GETD2S
	LDD  R26,Y+@0
	LDD  R27,Y+@0+1
	LDD  R24,Y+@0+2
	LDD  R25,Y+@0+3
	.ENDM

	.MACRO __GETD1P_INC
	LD   R30,X+
	LD   R31,X+
	LD   R22,X+
	LD   R23,X+
	.ENDM

	.MACRO __GETD1P_DEC
	LD   R23,-X
	LD   R22,-X
	LD   R31,-X
	LD   R30,-X
	.ENDM

	.MACRO __PUTDP1
	ST   X+,R30
	ST   X+,R31
	ST   X+,R22
	ST   X,R23
	.ENDM

	.MACRO __PUTDP1_DEC
	ST   -X,R23
	ST   -X,R22
	ST   -X,R31
	ST   -X,R30
	.ENDM

	.MACRO __PUTD1S
	STD  Y+@0,R30
	STD  Y+@0+1,R31
	STD  Y+@0+2,R22
	STD  Y+@0+3,R23
	.ENDM

	.MACRO __PUTD2S
	STD  Y+@0,R26
	STD  Y+@0+1,R27
	STD  Y+@0+2,R24
	STD  Y+@0+3,R25
	.ENDM

	.MACRO __PUTDZ2
	STD  Z+@0,R26
	STD  Z+@0+1,R27
	STD  Z+@0+2,R24
	STD  Z+@0+3,R25
	.ENDM

	.MACRO __CLRD1S
	STD  Y+@0,R30
	STD  Y+@0+1,R30
	STD  Y+@0+2,R30
	STD  Y+@0+3,R30
	.ENDM

	.MACRO __CPD10
	SBIW R30,0
	SBCI R22,0
	SBCI R23,0
	.ENDM

	.MACRO __CPD20
	SBIW R26,0
	SBCI R24,0
	SBCI R25,0
	.ENDM

	.MACRO __ADDD12
	ADD  R30,R26
	ADC  R31,R27
	ADC  R22,R24
	ADC  R23,R25
	.ENDM

	.MACRO __ADDD21
	ADD  R26,R30
	ADC  R27,R31
	ADC  R24,R22
	ADC  R25,R23
	.ENDM

	.MACRO __SUBD12
	SUB  R30,R26
	SBC  R31,R27
	SBC  R22,R24
	SBC  R23,R25
	.ENDM

	.MACRO __SUBD21
	SUB  R26,R30
	SBC  R27,R31
	SBC  R24,R22
	SBC  R25,R23
	.ENDM

	.MACRO __ANDD12
	AND  R30,R26
	AND  R31,R27
	AND  R22,R24
	AND  R23,R25
	.ENDM

	.MACRO __ORD12
	OR   R30,R26
	OR   R31,R27
	OR   R22,R24
	OR   R23,R25
	.ENDM

	.MACRO __XORD12
	EOR  R30,R26
	EOR  R31,R27
	EOR  R22,R24
	EOR  R23,R25
	.ENDM

	.MACRO __XORD21
	EOR  R26,R30
	EOR  R27,R31
	EOR  R24,R22
	EOR  R25,R23
	.ENDM

	.MACRO __COMD1
	COM  R30
	COM  R31
	COM  R22
	COM  R23
	.ENDM

	.MACRO __MULD2_2
	LSL  R26
	ROL  R27
	ROL  R24
	ROL  R25
	.ENDM

	.MACRO __LSRD1
	LSR  R23
	ROR  R22
	ROR  R31
	ROR  R30
	.ENDM

	.MACRO __LSLD1
	LSL  R30
	ROL  R31
	ROL  R22
	ROL  R23
	.ENDM

	.MACRO __ASRB4
	ASR  R30
	ASR  R30
	ASR  R30
	ASR  R30
	.ENDM

	.MACRO __ASRW8
	MOV  R30,R31
	CLR  R31
	SBRC R30,7
	SER  R31
	.ENDM

	.MACRO __LSRD16
	MOV  R30,R22
	MOV  R31,R23
	LDI  R22,0
	LDI  R23,0
	.ENDM

	.MACRO __LSLD16
	MOV  R22,R30
	MOV  R23,R31
	LDI  R30,0
	LDI  R31,0
	.ENDM

	.MACRO __CWD1
	MOV  R22,R31
	ADD  R22,R22
	SBC  R22,R22
	MOV  R23,R22
	.ENDM

	.MACRO __CWD2
	MOV  R24,R27
	ADD  R24,R24
	SBC  R24,R24
	MOV  R25,R24
	.ENDM

	.MACRO __SETMSD1
	SER  R31
	SER  R22
	SER  R23
	.ENDM

	.MACRO __ADDW1R15
	CLR  R0
	ADD  R30,R15
	ADC  R31,R0
	.ENDM

	.MACRO __ADDW2R15
	CLR  R0
	ADD  R26,R15
	ADC  R27,R0
	.ENDM

	.MACRO __EQB12
	CP   R30,R26
	LDI  R30,1
	BREQ PC+2
	CLR  R30
	.ENDM

	.MACRO __NEB12
	CP   R30,R26
	LDI  R30,1
	BRNE PC+2
	CLR  R30
	.ENDM

	.MACRO __LEB12
	CP   R30,R26
	LDI  R30,1
	BRGE PC+2
	CLR  R30
	.ENDM

	.MACRO __GEB12
	CP   R26,R30
	LDI  R30,1
	BRGE PC+2
	CLR  R30
	.ENDM

	.MACRO __LTB12
	CP   R26,R30
	LDI  R30,1
	BRLT PC+2
	CLR  R30
	.ENDM

	.MACRO __GTB12
	CP   R30,R26
	LDI  R30,1
	BRLT PC+2
	CLR  R30
	.ENDM

	.MACRO __LEB12U
	CP   R30,R26
	LDI  R30,1
	BRSH PC+2
	CLR  R30
	.ENDM

	.MACRO __GEB12U
	CP   R26,R30
	LDI  R30,1
	BRSH PC+2
	CLR  R30
	.ENDM

	.MACRO __LTB12U
	CP   R26,R30
	LDI  R30,1
	BRLO PC+2
	CLR  R30
	.ENDM

	.MACRO __GTB12U
	CP   R30,R26
	LDI  R30,1
	BRLO PC+2
	CLR  R30
	.ENDM

	.MACRO __CPW01
	CLR  R0
	CP   R0,R30
	CPC  R0,R31
	.ENDM

	.MACRO __CPW02
	CLR  R0
	CP   R0,R26
	CPC  R0,R27
	.ENDM

	.MACRO __CPD12
	CP   R30,R26
	CPC  R31,R27
	CPC  R22,R24
	CPC  R23,R25
	.ENDM

	.MACRO __CPD21
	CP   R26,R30
	CPC  R27,R31
	CPC  R24,R22
	CPC  R25,R23
	.ENDM

	.MACRO __BSTB1
	CLT
	TST  R30
	BREQ PC+2
	SET
	.ENDM

	.MACRO __LNEGB1
	TST  R30
	LDI  R30,1
	BREQ PC+2
	CLR  R30
	.ENDM

	.MACRO __LNEGW1
	OR   R30,R31
	LDI  R30,1
	BREQ PC+2
	LDI  R30,0
	.ENDM

	.MACRO __POINTB1MN
	LDI  R30,LOW(@0+(@1))
	.ENDM

	.MACRO __POINTW1MN
	LDI  R30,LOW(@0+(@1))
	LDI  R31,HIGH(@0+(@1))
	.ENDM

	.MACRO __POINTD1M
	LDI  R30,LOW(@0)
	LDI  R31,HIGH(@0)
	LDI  R22,BYTE3(@0)
	LDI  R23,BYTE4(@0)
	.ENDM

	.MACRO __POINTW1FN
	LDI  R30,LOW(2*@0+(@1))
	LDI  R31,HIGH(2*@0+(@1))
	.ENDM

	.MACRO __POINTD1FN
	LDI  R30,LOW(2*@0+(@1))
	LDI  R31,HIGH(2*@0+(@1))
	LDI  R22,BYTE3(2*@0+(@1))
	LDI  R23,BYTE4(2*@0+(@1))
	.ENDM

	.MACRO __POINTB2MN
	LDI  R26,LOW(@0+(@1))
	.ENDM

	.MACRO __POINTW2MN
	LDI  R26,LOW(@0+(@1))
	LDI  R27,HIGH(@0+(@1))
	.ENDM

	.MACRO __POINTD2M
	LDI  R26,LOW(@0)
	LDI  R27,HIGH(@0)
	LDI  R24,BYTE3(@0)
	LDI  R25,BYTE4(@0)
	.ENDM

	.MACRO __POINTW2FN
	LDI  R26,LOW(2*@0+(@1))
	LDI  R27,HIGH(2*@0+(@1))
	.ENDM

	.MACRO __POINTD2FN
	LDI  R26,LOW(2*@0+(@1))
	LDI  R27,HIGH(2*@0+(@1))
	LDI  R24,BYTE3(2*@0+(@1))
	LDI  R25,BYTE4(2*@0+(@1))
	.ENDM

	.MACRO __POINTBRM
	LDI  R@0,LOW(@1)
	.ENDM

	.MACRO __POINTWRM
	LDI  R@0,LOW(@2)
	LDI  R@1,HIGH(@2)
	.ENDM

	.MACRO __POINTBRMN
	LDI  R@0,LOW(@1+(@2))
	.ENDM

	.MACRO __POINTWRMN
	LDI  R@0,LOW(@2+(@3))
	LDI  R@1,HIGH(@2+(@3))
	.ENDM

	.MACRO __POINTWRFN
	LDI  R@0,LOW(@2*2+(@3))
	LDI  R@1,HIGH(@2*2+(@3))
	.ENDM

	.MACRO __GETD1N
	LDI  R30,LOW(@0)
	LDI  R31,HIGH(@0)
	LDI  R22,BYTE3(@0)
	LDI  R23,BYTE4(@0)
	.ENDM

	.MACRO __GETD2N
	LDI  R26,LOW(@0)
	LDI  R27,HIGH(@0)
	LDI  R24,BYTE3(@0)
	LDI  R25,BYTE4(@0)
	.ENDM

	.MACRO __GETB1MN
	LDS  R30,@0+(@1)
	.ENDM

	.MACRO __GETB1HMN
	LDS  R31,@0+(@1)
	.ENDM

	.MACRO __GETW1MN
	LDS  R30,@0+(@1)
	LDS  R31,@0+(@1)+1
	.ENDM

	.MACRO __GETD1MN
	LDS  R30,@0+(@1)
	LDS  R31,@0+(@1)+1
	LDS  R22,@0+(@1)+2
	LDS  R23,@0+(@1)+3
	.ENDM

	.MACRO __GETBRMN
	LDS  R@0,@1+(@2)
	.ENDM

	.MACRO __GETWRMN
	LDS  R@0,@2+(@3)
	LDS  R@1,@2+(@3)+1
	.ENDM

	.MACRO __GETWRZ
	LDD  R@0,Z+@2
	LDD  R@1,Z+@2+1
	.ENDM

	.MACRO __GETD2Z
	LDD  R26,Z+@0
	LDD  R27,Z+@0+1
	LDD  R24,Z+@0+2
	LDD  R25,Z+@0+3
	.ENDM

	.MACRO __GETB2MN
	LDS  R26,@0+(@1)
	.ENDM

	.MACRO __GETW2MN
	LDS  R26,@0+(@1)
	LDS  R27,@0+(@1)+1
	.ENDM

	.MACRO __GETD2MN
	LDS  R26,@0+(@1)
	LDS  R27,@0+(@1)+1
	LDS  R24,@0+(@1)+2
	LDS  R25,@0+(@1)+3
	.ENDM

	.MACRO __PUTB1MN
	STS  @0+(@1),R30
	.ENDM

	.MACRO __PUTW1MN
	STS  @0+(@1),R30
	STS  @0+(@1)+1,R31
	.ENDM

	.MACRO __PUTD1MN
	STS  @0+(@1),R30
	STS  @0+(@1)+1,R31
	STS  @0+(@1)+2,R22
	STS  @0+(@1)+3,R23
	.ENDM

	.MACRO __PUTB1EN
	LDI  R26,LOW(@0+(@1))
	LDI  R27,HIGH(@0+(@1))
	CALL __EEPROMWRB
	.ENDM

	.MACRO __PUTW1EN
	LDI  R26,LOW(@0+(@1))
	LDI  R27,HIGH(@0+(@1))
	CALL __EEPROMWRW
	.ENDM

	.MACRO __PUTD1EN
	LDI  R26,LOW(@0+(@1))
	LDI  R27,HIGH(@0+(@1))
	CALL __EEPROMWRD
	.ENDM

	.MACRO __PUTBR0MN
	STS  @0+(@1),R0
	.ENDM

	.MACRO __PUTBMRN
	STS  @0+(@1),R@2
	.ENDM

	.MACRO __PUTWMRN
	STS  @0+(@1),R@2
	STS  @0+(@1)+1,R@3
	.ENDM

	.MACRO __PUTBZR
	STD  Z+@1,R@0
	.ENDM

	.MACRO __PUTWZR
	STD  Z+@2,R@0
	STD  Z+@2+1,R@1
	.ENDM

	.MACRO __GETW1R
	MOV  R30,R@0
	MOV  R31,R@1
	.ENDM

	.MACRO __GETW2R
	MOV  R26,R@0
	MOV  R27,R@1
	.ENDM

	.MACRO __GETWRN
	LDI  R@0,LOW(@2)
	LDI  R@1,HIGH(@2)
	.ENDM

	.MACRO __PUTW1R
	MOV  R@0,R30
	MOV  R@1,R31
	.ENDM

	.MACRO __PUTW2R
	MOV  R@0,R26
	MOV  R@1,R27
	.ENDM

	.MACRO __ADDWRN
	SUBI R@0,LOW(-@2)
	SBCI R@1,HIGH(-@2)
	.ENDM

	.MACRO __ADDWRR
	ADD  R@0,R@2
	ADC  R@1,R@3
	.ENDM

	.MACRO __SUBWRN
	SUBI R@0,LOW(@2)
	SBCI R@1,HIGH(@2)
	.ENDM

	.MACRO __SUBWRR
	SUB  R@0,R@2
	SBC  R@1,R@3
	.ENDM

	.MACRO __ANDWRN
	ANDI R@0,LOW(@2)
	ANDI R@1,HIGH(@2)
	.ENDM

	.MACRO __ANDWRR
	AND  R@0,R@2
	AND  R@1,R@3
	.ENDM

	.MACRO __ORWRN
	ORI  R@0,LOW(@2)
	ORI  R@1,HIGH(@2)
	.ENDM

	.MACRO __ORWRR
	OR   R@0,R@2
	OR   R@1,R@3
	.ENDM

	.MACRO __EORWRR
	EOR  R@0,R@2
	EOR  R@1,R@3
	.ENDM

	.MACRO __GETWRS
	LDD  R@0,Y+@2
	LDD  R@1,Y+@2+1
	.ENDM

	.MACRO __PUTBSR
	STD  Y+@1,R@0
	.ENDM

	.MACRO __PUTWSR
	STD  Y+@2,R@0
	STD  Y+@2+1,R@1
	.ENDM

	.MACRO __MOVEWRR
	MOV  R@0,R@2
	MOV  R@1,R@3
	.ENDM

	.MACRO __INWR
	IN   R@0,@2
	IN   R@1,@2+1
	.ENDM

	.MACRO __OUTWR
	OUT  @2+1,R@1
	OUT  @2,R@0
	.ENDM

	.MACRO __CALL1MN
	LDS  R30,@0+(@1)
	LDS  R31,@0+(@1)+1
	ICALL
	.ENDM

	.MACRO __CALL1FN
	LDI  R30,LOW(2*@0+(@1))
	LDI  R31,HIGH(2*@0+(@1))
	CALL __GETW1PF
	ICALL
	.ENDM

	.MACRO __CALL2EN
	PUSH R26
	PUSH R27
	LDI  R26,LOW(@0+(@1))
	LDI  R27,HIGH(@0+(@1))
	CALL __EEPROMRDW
	POP  R27
	POP  R26
	ICALL
	.ENDM

	.MACRO __CALL2EX
	SUBI R26,LOW(-@0)
	SBCI R27,HIGH(-@0)
	CALL __EEPROMRDD
	ICALL
	.ENDM

	.MACRO __GETW1STACK
	IN   R30,SPL
	IN   R31,SPH
	ADIW R30,@0+1
	LD   R0,Z+
	LD   R31,Z
	MOV  R30,R0
	.ENDM

	.MACRO __GETD1STACK
	IN   R30,SPL
	IN   R31,SPH
	ADIW R30,@0+1
	LD   R0,Z+
	LD   R1,Z+
	LD   R22,Z
	MOVW R30,R0
	.ENDM

	.MACRO __NBST
	BST  R@0,@1
	IN   R30,SREG
	LDI  R31,0x40
	EOR  R30,R31
	OUT  SREG,R30
	.ENDM


	.MACRO __PUTB1SN
	LDD  R26,Y+@0
	LDD  R27,Y+@0+1
	SUBI R26,LOW(-@1)
	SBCI R27,HIGH(-@1)
	ST   X,R30
	.ENDM

	.MACRO __PUTW1SN
	LDD  R26,Y+@0
	LDD  R27,Y+@0+1
	SUBI R26,LOW(-@1)
	SBCI R27,HIGH(-@1)
	ST   X+,R30
	ST   X,R31
	.ENDM

	.MACRO __PUTD1SN
	LDD  R26,Y+@0
	LDD  R27,Y+@0+1
	SUBI R26,LOW(-@1)
	SBCI R27,HIGH(-@1)
	ST   X+,R30
	ST   X+,R31
	ST   X+,R22
	ST   X,R23
	.ENDM

	.MACRO __PUTB1SNS
	LDD  R26,Y+@0
	LDD  R27,Y+@0+1
	ADIW R26,@1
	ST   X,R30
	.ENDM

	.MACRO __PUTW1SNS
	LDD  R26,Y+@0
	LDD  R27,Y+@0+1
	ADIW R26,@1
	ST   X+,R30
	ST   X,R31
	.ENDM

	.MACRO __PUTD1SNS
	LDD  R26,Y+@0
	LDD  R27,Y+@0+1
	ADIW R26,@1
	ST   X+,R30
	ST   X+,R31
	ST   X+,R22
	ST   X,R23
	.ENDM

	.MACRO __PUTB1PMN
	LDS  R26,@0
	LDS  R27,@0+1
	SUBI R26,LOW(-@1)
	SBCI R27,HIGH(-@1)
	ST   X,R30
	.ENDM

	.MACRO __PUTW1PMN
	LDS  R26,@0
	LDS  R27,@0+1
	SUBI R26,LOW(-@1)
	SBCI R27,HIGH(-@1)
	ST   X+,R30
	ST   X,R31
	.ENDM

	.MACRO __PUTD1PMN
	LDS  R26,@0
	LDS  R27,@0+1
	SUBI R26,LOW(-@1)
	SBCI R27,HIGH(-@1)
	ST   X+,R30
	ST   X+,R31
	ST   X+,R22
	ST   X,R23
	.ENDM

	.MACRO __PUTB1PMNS
	LDS  R26,@0
	LDS  R27,@0+1
	ADIW R26,@1
	ST   X,R30
	.ENDM

	.MACRO __PUTW1PMNS
	LDS  R26,@0
	LDS  R27,@0+1
	ADIW R26,@1
	ST   X+,R30
	ST   X,R31
	.ENDM

	.MACRO __PUTD1PMNS
	LDS  R26,@0
	LDS  R27,@0+1
	ADIW R26,@1
	ST   X+,R30
	ST   X+,R31
	ST   X+,R22
	ST   X,R23
	.ENDM

	.MACRO __PUTB1RN
	MOVW R26,R@0
	SUBI R26,LOW(-@1)
	SBCI R27,HIGH(-@1)
	ST   X,R30
	.ENDM

	.MACRO __PUTW1RN
	MOVW R26,R@0
	SUBI R26,LOW(-@1)
	SBCI R27,HIGH(-@1)
	ST   X+,R30
	ST   X,R31
	.ENDM

	.MACRO __PUTD1RN
	MOVW R26,R@0
	SUBI R26,LOW(-@1)
	SBCI R27,HIGH(-@1)
	ST   X+,R30
	ST   X+,R31
	ST   X+,R22
	ST   X,R23
	.ENDM

	.MACRO __PUTB1RNS
	MOVW R26,R@0
	ADIW R26,@1
	ST   X,R30
	.ENDM

	.MACRO __PUTW1RNS
	MOVW R26,R@0
	ADIW R26,@1
	ST   X+,R30
	ST   X,R31
	.ENDM

	.MACRO __PUTD1RNS
	MOVW R26,R@0
	ADIW R26,@1
	ST   X+,R30
	ST   X+,R31
	ST   X+,R22
	ST   X,R23
	.ENDM

	.MACRO __PUTB1RON
	MOV  R26,R@0
	MOV  R27,R@1
	SUBI R26,LOW(-@2)
	SBCI R27,HIGH(-@2)
	ST   X,R30
	.ENDM

	.MACRO __PUTW1RON
	MOV  R26,R@0
	MOV  R27,R@1
	SUBI R26,LOW(-@2)
	SBCI R27,HIGH(-@2)
	ST   X+,R30
	ST   X,R31
	.ENDM

	.MACRO __PUTD1RON
	MOV  R26,R@0
	MOV  R27,R@1
	SUBI R26,LOW(-@2)
	SBCI R27,HIGH(-@2)
	ST   X+,R30
	ST   X+,R31
	ST   X+,R22
	ST   X,R23
	.ENDM

	.MACRO __PUTB1RONS
	MOV  R26,R@0
	MOV  R27,R@1
	ADIW R26,@2
	ST   X,R30
	.ENDM

	.MACRO __PUTW1RONS
	MOV  R26,R@0
	MOV  R27,R@1
	ADIW R26,@2
	ST   X+,R30
	ST   X,R31
	.ENDM

	.MACRO __PUTD1RONS
	MOV  R26,R@0
	MOV  R27,R@1
	ADIW R26,@2
	ST   X+,R30
	ST   X+,R31
	ST   X+,R22
	ST   X,R23
	.ENDM


	.MACRO __GETB1SX
	MOVW R30,R28
	SUBI R30,LOW(-@0)
	SBCI R31,HIGH(-@0)
	LD   R30,Z
	.ENDM

	.MACRO __GETB1HSX
	MOVW R30,R28
	SUBI R30,LOW(-@0)
	SBCI R31,HIGH(-@0)
	LD   R31,Z
	.ENDM

	.MACRO __GETW1SX
	MOVW R30,R28
	SUBI R30,LOW(-@0)
	SBCI R31,HIGH(-@0)
	CALL __GETW1Z
	.ENDM

	.MACRO __GETD1SX
	MOVW R30,R28
	SUBI R30,LOW(-@0)
	SBCI R31,HIGH(-@0)
	CALL __GETD1Z
	.ENDM

	.MACRO __GETB2SX
	MOVW R26,R28
	SUBI R26,LOW(-@0)
	SBCI R27,HIGH(-@0)
	LD   R26,X
	.ENDM

	.MACRO __GETW2SX
	MOVW R26,R28
	SUBI R26,LOW(-@0)
	SBCI R27,HIGH(-@0)
	CALL __GETW2X
	.ENDM

	.MACRO __GETD2SX
	MOVW R26,R28
	SUBI R26,LOW(-@0)
	SBCI R27,HIGH(-@0)
	CALL __GETD2X
	.ENDM

	.MACRO __GETBRSX
	MOVW R30,R28
	SUBI R30,LOW(-@1)
	SBCI R31,HIGH(-@1)
	LD   R@0,Z
	.ENDM

	.MACRO __GETWRSX
	MOVW R30,R28
	SUBI R30,LOW(-@2)
	SBCI R31,HIGH(-@2)
	LD   R@0,Z+
	LD   R@1,Z
	.ENDM

	.MACRO __GETBRSX2
	MOVW R26,R28
	SUBI R26,LOW(-@1)
	SBCI R27,HIGH(-@1)
	LD   R@0,X
	.ENDM

	.MACRO __GETWRSX2
	MOVW R26,R28
	SUBI R26,LOW(-@2)
	SBCI R27,HIGH(-@2)
	LD   R@0,X+
	LD   R@1,X
	.ENDM

	.MACRO __LSLW8SX
	MOVW R30,R28
	SUBI R30,LOW(-@0)
	SBCI R31,HIGH(-@0)
	LD   R31,Z
	CLR  R30
	.ENDM

	.MACRO __PUTB1SX
	MOVW R26,R28
	SUBI R26,LOW(-@0)
	SBCI R27,HIGH(-@0)
	ST   X,R30
	.ENDM

	.MACRO __PUTW1SX
	MOVW R26,R28
	SUBI R26,LOW(-@0)
	SBCI R27,HIGH(-@0)
	ST   X+,R30
	ST   X,R31
	.ENDM

	.MACRO __PUTD1SX
	MOVW R26,R28
	SUBI R26,LOW(-@0)
	SBCI R27,HIGH(-@0)
	ST   X+,R30
	ST   X+,R31
	ST   X+,R22
	ST   X,R23
	.ENDM

	.MACRO __CLRW1SX
	MOVW R26,R28
	SUBI R26,LOW(-@0)
	SBCI R27,HIGH(-@0)
	ST   X+,R30
	ST   X,R30
	.ENDM

	.MACRO __CLRD1SX
	MOVW R26,R28
	SUBI R26,LOW(-@0)
	SBCI R27,HIGH(-@0)
	ST   X+,R30
	ST   X+,R30
	ST   X+,R30
	ST   X,R30
	.ENDM

	.MACRO __PUTB2SX
	MOVW R30,R28
	SUBI R30,LOW(-@0)
	SBCI R31,HIGH(-@0)
	ST   Z,R26
	.ENDM

	.MACRO __PUTW2SX
	MOVW R30,R28
	SUBI R30,LOW(-@0)
	SBCI R31,HIGH(-@0)
	ST   Z+,R26
	ST   Z,R27
	.ENDM

	.MACRO __PUTD2SX
	MOVW R30,R28
	SUBI R30,LOW(-@0)
	SBCI R31,HIGH(-@0)
	ST   Z+,R26
	ST   Z+,R27
	ST   Z+,R24
	ST   Z,R25
	.ENDM

	.MACRO __PUTBSRX
	MOVW R30,R28
	SUBI R30,LOW(-@1)
	SBCI R31,HIGH(-@1)
	ST   Z,R@0
	.ENDM

	.MACRO __PUTWSRX
	MOVW R30,R28
	SUBI R30,LOW(-@2)
	SBCI R31,HIGH(-@2)
	ST   Z+,R@0
	ST   Z,R@1
	.ENDM

	.MACRO __PUTB1SNX
	MOVW R26,R28
	SUBI R26,LOW(-@0)
	SBCI R27,HIGH(-@0)
	LD   R0,X+
	LD   R27,X
	MOV  R26,R0
	SUBI R26,LOW(-@1)
	SBCI R27,HIGH(-@1)
	ST   X,R30
	.ENDM

	.MACRO __PUTW1SNX
	MOVW R26,R28
	SUBI R26,LOW(-@0)
	SBCI R27,HIGH(-@0)
	LD   R0,X+
	LD   R27,X
	MOV  R26,R0
	SUBI R26,LOW(-@1)
	SBCI R27,HIGH(-@1)
	ST   X+,R30
	ST   X,R31
	.ENDM

	.MACRO __PUTD1SNX
	MOVW R26,R28
	SUBI R26,LOW(-@0)
	SBCI R27,HIGH(-@0)
	LD   R0,X+
	LD   R27,X
	MOV  R26,R0
	SUBI R26,LOW(-@1)
	SBCI R27,HIGH(-@1)
	ST   X+,R30
	ST   X+,R31
	ST   X+,R22
	ST   X,R23
	.ENDM

	.MACRO __MULBRR
	MULS R@0,R@1
	MOVW R30,R0
	.ENDM

	.MACRO __MULBRRU
	MUL  R@0,R@1
	MOVW R30,R0
	.ENDM

	.MACRO __MULBRR0
	MULS R@0,R@1
	.ENDM

	.MACRO __MULBRRU0
	MUL  R@0,R@1
	.ENDM

	.MACRO __MULBNWRU
	LDI  R26,@2
	MUL  R26,R@0
	MOVW R30,R0
	MUL  R26,R@1
	ADD  R31,R0
	.ENDM

;NAME DEFINITIONS FOR GLOBAL VARIABLES ALLOCATED TO REGISTERS
	.DEF _zero_flag=R5
	.DEF _ti_Cnt_1ms=R4
	.DEF _LCD_DelCnt_1ms=R7

	.CSEG
	.ORG 0x00

;START OF CODE MARKER
__START_OF_CODE:

;INTERRUPT VECTORS
	JMP  __RESET
	JMP  0x00
	JMP  0x00
	JMP  0x00
	JMP  0x00
	JMP  0x00
	JMP  0x00
	JMP  0x00
	JMP  0x00
	JMP  0x00
	JMP  0x00
	JMP  0x00
	JMP  _compare
	JMP  0x00
	JMP  0x00
	JMP  _timer0_comp
	JMP  0x00
	JMP  0x00
	JMP  0x00
	JMP  0x00
	JMP  0x00
	JMP  0x00
	JMP  0x00
	JMP  0x00
	JMP  0x00
	JMP  0x00
	JMP  0x00
	JMP  0x00
	JMP  0x00
	JMP  0x00
	JMP  0x00
	JMP  0x00
	JMP  0x00
	JMP  0x00
	JMP  0x00

_tbl10_G100:
	.DB  0x10,0x27,0xE8,0x3,0x64,0x0,0xA,0x0
	.DB  0x1,0x0
_tbl16_G100:
	.DB  0x0,0x10,0x0,0x1,0x10,0x0,0x1,0x0

;GLOBAL REGISTER VARIABLES INITIALIZATION
__REG_VARS:
	.DB  0x0

_0x5A:
	.DB  0xC0,0xF9,0xA4,0xB0,0x99,0x92,0x82,0xD8
	.DB  0x80,0x90,0x88,0x83,0xC4,0xA1,0x84,0x8E
_0x5B:
	.DB  0x1F,0x0,0x2F,0x0,0x4F,0x0,0x8F
_0x89:
	.DB  0x0,0x0,0x0,0x0,0x0,0x0,0x0,0x0
	.DB  0x0,0x0,0x0,0x0,0x0,0x0,0x0,0x0
	.DB  0x0,0x0,0x0,0x0,0x0,0x0,0x0,0x0
	.DB  0x0,0x0,0x0,0x0,0x0,0x0,0x0,0x0
	.DB  0x0,0x0,0x0,0x0,0x0,0x0,0x0,0x0
	.DB  0x0,0x0,0x0,0x0,0x0,0x0,0x0,0x0
	.DB  0x0,0x0,0x0,0x0,0x0,0x0,0x0,0x0
	.DB  0x0,0x0,0x0,0x0
_0x0:
	.DB  0x20,0x20,0x20,0x20,0x20,0x20,0x20,0x20
	.DB  0x20,0x20,0x20,0x20,0x20,0x20,0x20,0x20
	.DB  0x20,0x20,0x20,0x20,0x0,0x25,0x30,0x33
	.DB  0x64,0x63,0x6D,0x0

__GLOBAL_INI_TBL:
	.DW  0x01
	.DW  0x05
	.DW  __REG_VARS*2

	.DW  0x15
	.DW  _0xA
	.DW  _0x0*2

	.DW  0x10
	.DW  _Port_char
	.DW  _0x5A*2

	.DW  0x07
	.DW  _Port_fnd
	.DW  _0x5B*2

_0xFFFFFFFF:
	.DW  0

#define __GLOBAL_INI_TBL_PRESENT 1

__RESET:
	CLI
	CLR  R30
	OUT  EECR,R30

;INTERRUPT VECTORS ARE PLACED
;AT THE START OF FLASH
	LDI  R31,1
	OUT  MCUCR,R31
	OUT  MCUCR,R30
	STS  XMCRB,R30

;CLEAR R2-R14
	LDI  R24,(14-2)+1
	LDI  R26,2
	CLR  R27
__CLEAR_REG:
	ST   X+,R30
	DEC  R24
	BRNE __CLEAR_REG

;CLEAR SRAM
	LDI  R24,LOW(__CLEAR_SRAM_SIZE)
	LDI  R25,HIGH(__CLEAR_SRAM_SIZE)
	LDI  R26,LOW(__SRAM_START)
	LDI  R27,HIGH(__SRAM_START)
__CLEAR_SRAM:
	ST   X+,R30
	SBIW R24,1
	BRNE __CLEAR_SRAM

;GLOBAL VARIABLES INITIALIZATION
	LDI  R30,LOW(__GLOBAL_INI_TBL*2)
	LDI  R31,HIGH(__GLOBAL_INI_TBL*2)
__GLOBAL_INI_NEXT:
	LPM  R24,Z+
	LPM  R25,Z+
	SBIW R24,0
	BREQ __GLOBAL_INI_END
	LPM  R26,Z+
	LPM  R27,Z+
	LPM  R0,Z+
	LPM  R1,Z+
	MOVW R22,R30
	MOVW R30,R0
__GLOBAL_INI_LOOP:
	LPM  R0,Z+
	ST   X+,R0
	SBIW R24,1
	BRNE __GLOBAL_INI_LOOP
	MOVW R30,R22
	RJMP __GLOBAL_INI_NEXT
__GLOBAL_INI_END:

	OUT  RAMPZ,R24

;HARDWARE STACK POINTER INITIALIZATION
	LDI  R30,LOW(__SRAM_END-__HEAP_SIZE)
	OUT  SPL,R30
	LDI  R30,HIGH(__SRAM_END-__HEAP_SIZE)
	OUT  SPH,R30

;DATA STACK POINTER INITIALIZATION
	LDI  R28,LOW(__SRAM_START+__DSTACK_SIZE)
	LDI  R29,HIGH(__SRAM_START+__DSTACK_SIZE)

	JMP  _main

	.ESEG
	.ORG 0x00

	.DSEG
	.ORG 0x500

	.CSEG
	#ifndef __SLEEP_DEFINED__
	#define __SLEEP_DEFINED__
	.EQU __se_bit=0x20
	.EQU __sm_mask=0x1C
	.EQU __sm_powerdown=0x10
	.EQU __sm_powersave=0x18
	.EQU __sm_standby=0x14
	.EQU __sm_ext_standby=0x1C
	.EQU __sm_adc_noise_red=0x08
	.SET power_ctrl_reg=mcucr
	#endif

	.CSEG
_LCD_PORT_Init:
; .FSTART _LCD_PORT_Init
	LDI  R30,LOW(255)
	OUT  0x1A,R30
	LDI  R30,LOW(31)
	STS  100,R30
	RET
; .FEND
_LCD_Data:
; .FSTART _LCD_Data
	RCALL SUBOPT_0x0
;	ch -> R17
	ORI  R30,4
	RCALL SUBOPT_0x1
	ANDI R30,0xFD
	RCALL SUBOPT_0x1
	RCALL SUBOPT_0x2
	RJMP _0x2060007
; .FEND
_LCD_Comm:
; .FSTART _LCD_Comm
	RCALL SUBOPT_0x0
;	ch -> R17
	ANDI R30,0xFB
	RCALL SUBOPT_0x1
	ANDI R30,0xFD
	RCALL SUBOPT_0x1
	RCALL SUBOPT_0x2
	RJMP _0x2060007
; .FEND
_LCD_delay:
; .FSTART _LCD_delay
	ST   -Y,R17
	MOV  R17,R26
;	ms -> R17
	CLR  R27
	RCALL _delay_ms
	RJMP _0x2060007
; .FEND
_LCD_Pos:
; .FSTART _LCD_Pos
	ST   -Y,R17
	ST   -Y,R16
	MOV  R17,R26
	LDD  R16,Y+2
;	col -> R16
;	row -> R17
	LDI  R26,LOW(64)
	MULS R16,R26
	MOVW R30,R0
	ADD  R30,R17
	ORI  R30,0x80
	MOV  R26,R30
	RCALL _LCD_Comm
	LDD  R17,Y+1
	LDD  R16,Y+0
	ADIW R28,3
	RET
; .FEND
_LCD_Char:
; .FSTART _LCD_Char
	ST   -Y,R17
	MOV  R17,R26
;	c -> R17
	RCALL _LCD_Data
	LDI  R26,LOW(1)
	LDI  R27,0
	RCALL _delay_ms
	RJMP _0x2060007
; .FEND
_LCD_Str:
; .FSTART _LCD_Str
	ST   -Y,R17
	ST   -Y,R16
	MOVW R16,R26
;	*str -> R16,R17
_0x3:
	MOVW R26,R16
	LD   R30,X
	CPI  R30,0
	BREQ _0x5
	LD   R26,X
	RCALL _LCD_Char
	__ADDWRN 16,17,1
	RJMP _0x3
_0x5:
	RJMP _0x2060004
; .FEND
;	*str -> R18,R19
;	loop_count -> R17

	.DSEG
_0xA:
	.BYTE 0x15

	.CSEG
_LCD_Clear:
; .FSTART _LCD_Clear
	LDI  R26,LOW(1)
	RCALL _LCD_Comm
	LDI  R26,LOW(2)
	RCALL _LCD_delay
	RET
; .FEND
_LCD_Init:
; .FSTART _LCD_Init
	RCALL _LCD_PORT_Init
	RCALL SUBOPT_0x3
	RCALL SUBOPT_0x3
	RCALL SUBOPT_0x3
	LDI  R26,LOW(14)
	RCALL _LCD_Comm
	LDI  R26,LOW(4)
	RCALL _LCD_delay
	LDI  R26,LOW(6)
	RCALL _LCD_Comm
	LDI  R26,LOW(4)
	RCALL _LCD_delay
	RCALL _LCD_Clear
	RET
; .FEND
;	p -> R17
;	p -> R17
_Init_TWI:
; .FSTART _Init_TWI
	LDI  R30,LOW(50)
	STS  112,R30
	LDI  R30,LOW(4)
	STS  116,R30
	LDI  R30,LOW(0)
	STS  113,R30
	RET
; .FEND
_TWI_TransCheck_ACK:
; .FSTART _TWI_TransCheck_ACK
	RCALL __SAVELOCR4
	MOV  R19,R26
;	Stat -> R19
;	ExtDev_ErrCnt -> R16,R17
	__GETWRN 16,17,0
_0x12:
	LDS  R30,116
	ANDI R30,LOW(0x80)
	BRNE _0x14
	MOVW R26,R16
	__ADDWRN 16,17,1
	CPI  R26,LOW(0x7D1)
	LDI  R30,HIGH(0x7D1)
	CPC  R27,R30
	BRLO _0x15
	LDI  R30,LOW(1)
	RJMP _0x2060003
_0x15:
	RJMP _0x12
_0x14:
	LDS  R30,113
	ANDI R30,LOW(0xF8)
	CP   R19,R30
	BREQ _0x16
	LDI  R30,LOW(2)
	RJMP _0x2060003
_0x16:
	LDI  R30,LOW(0)
	RJMP _0x2060003
; .FEND
_TWI_Start:
; .FSTART _TWI_Start
	LDI  R30,LOW(164)
	STS  116,R30
	LDI  R26,LOW(8)
	RJMP _0x2060009
; .FEND
_TWI_Write_SLAW:
; .FSTART _TWI_Write_SLAW
	RCALL SUBOPT_0x4
;	Addr -> R17
	LDI  R26,LOW(24)
	RCALL _TWI_TransCheck_ACK
	RJMP _0x2060007
; .FEND
_TWI_Write_Data:
; .FSTART _TWI_Write_Data
	RCALL SUBOPT_0x4
;	Data -> R17
	LDI  R26,LOW(40)
	RCALL _TWI_TransCheck_ACK
	RJMP _0x2060007
; .FEND
_TWI_Stop:
; .FSTART _TWI_Stop
	LDI  R30,LOW(148)
	STS  116,R30
	RET
; .FEND
_TWI_Restart:
; .FSTART _TWI_Restart
	LDI  R30,LOW(164)
	STS  116,R30
	LDI  R26,LOW(16)
_0x2060009:
	RCALL _TWI_TransCheck_ACK
	RET
; .FEND
;	Data -> R19
;	Addr -> R16
;	ret_err -> R17
_TWI_Write_SLAR:
; .FSTART _TWI_Write_SLAR
	ST   -Y,R17
	MOV  R17,R26
;	Addr -> R17
	MOV  R30,R17
	ORI  R30,1
	STS  115,R30
	LDI  R30,LOW(132)
	STS  116,R30
	LDI  R26,LOW(64)
	RCALL _TWI_TransCheck_ACK
	RJMP _0x2060007
; .FEND
;	*Data -> R18,R19
;	ret_err -> R17
_TWI_Read_Data_NACK:
; .FSTART _TWI_Read_Data_NACK
	RCALL __SAVELOCR4
	MOVW R18,R26
;	*Data -> R18,R19
;	ret_err -> R17
	LDI  R17,0
	LDI  R30,LOW(132)
	STS  116,R30
	LDI  R26,LOW(88)
	RCALL _TWI_TransCheck_ACK
	MOV  R17,R30
	LDS  R30,115
	MOVW R26,R18
	ST   X,R30
	LDI  R30,LOW(0)
	RJMP _0x2060003
; .FEND
;	Addr -> R21
;	*Data -> R18,R19
;	rec_data -> R17
;	ret_err -> R16
;	Slave_Addr -> R17
;	*Data -> R18,R19
;	ret_err -> R17
;	*Data -> R18,R19
;	ret_err -> R17
;	rec_data -> R16
;	devAddr -> R20
;	regAddr -> R21
;	*Data -> R18,R19
;	rec_data -> R17
;	ret_err -> R16
_SRF02_I2C_Write:
; .FSTART _SRF02_I2C_Write
	RCALL __SAVELOCR4
	MOV  R16,R26
	LDD  R19,Y+4
	LDD  R18,Y+5
;	address -> R18
;	reg -> R19
;	data -> R16
;	ret_err -> R17
	LDI  R17,0
	RCALL _TWI_Start
	MOV  R17,R30
	MOV  R26,R18
	RCALL _TWI_Write_SLAW
	MOV  R17,R30
	CPI  R17,0
	BREQ _0x29
	RCALL __LOADLOCR4
	RJMP _0x2060006
_0x29:
	MOV  R26,R19
	RCALL _TWI_Write_Data
	MOV  R17,R30
	CPI  R17,0
	BREQ _0x2A
	RCALL __LOADLOCR4
	RJMP _0x2060006
_0x2A:
	MOV  R26,R16
	RCALL _TWI_Write_Data
	MOV  R17,R30
	CPI  R17,0
	BREQ _0x2B
	RCALL __LOADLOCR4
	RJMP _0x2060006
_0x2B:
	RCALL _TWI_Stop
	LDI  R30,LOW(0)
	RCALL __LOADLOCR4
	RJMP _0x2060006
; .FEND
_SRF02_I2C_Read:
; .FSTART _SRF02_I2C_Read
	RCALL __SAVELOCR6
	MOVW R18,R26
	LDD  R21,Y+6
	LDD  R20,Y+7
;	address -> R20
;	reg -> R21
;	*Data -> R18,R19
;	read_data -> R17
;	ret_err -> R16
	LDI  R17,0
	LDI  R16,0
	RCALL _TWI_Start
	MOV  R16,R30
	MOV  R26,R20
	RCALL _TWI_Write_SLAW
	MOV  R16,R30
	CPI  R16,0
	BREQ _0x2C
	RJMP _0x2060008
_0x2C:
	MOV  R26,R21
	RCALL _TWI_Write_Data
	MOV  R16,R30
	CPI  R16,0
	BREQ _0x2D
	RJMP _0x2060008
_0x2D:
	RCALL _TWI_Restart
	MOV  R16,R30
	SBI  0x18,3
	CPI  R16,0
	BREQ _0x2E
	RJMP _0x2060008
_0x2E:
	MOV  R26,R20
	RCALL _TWI_Write_SLAR
	MOV  R16,R30
	SBI  0x18,4
	CPI  R16,0
	BREQ _0x2F
	RJMP _0x2060008
_0x2F:
	IN   R26,SPL
	IN   R27,SPH
	PUSH R17
	RCALL _TWI_Read_Data_NACK
	POP  R17
	MOV  R16,R30
	SBI  0x18,5
	CPI  R16,0
	BREQ _0x30
	RJMP _0x2060008
_0x30:
	RCALL _TWI_Stop
	MOV  R30,R17
	MOVW R26,R18
	ST   X,R30
	LDI  R30,LOW(0)
_0x2060008:
	RCALL __LOADLOCR6
	ADIW R28,8
	RET
; .FEND
_startRanging:
; .FSTART _startRanging
	ST   -Y,R17
	MOV  R17,R26
;	addr -> R17
	ST   -Y,R17
	LDI  R30,LOW(0)
	ST   -Y,R30
	LDI  R26,LOW(81)
	RCALL _SRF02_I2C_Write
_0x2060007:
	LD   R17,Y+
	RET
; .FEND
_getRange:
; .FSTART _getRange
	RCALL __SAVELOCR6
	MOVW R18,R26
	LDD  R21,Y+6
;	addr -> R21
;	*pDistance -> R18,R19
;	temp -> R17
;	res -> R16
	LDI  R16,0
	ST   -Y,R21
	LDI  R30,LOW(2)
	ST   -Y,R30
	IN   R26,SPL
	IN   R27,SPH
	PUSH R17
	RCALL _SRF02_I2C_Read
	POP  R17
	MOV  R16,R30
	CPI  R16,0
	BREQ _0x31
	LDI  R31,0
	RJMP _0x2060002
_0x31:
	MOV  R31,R17
	LDI  R30,LOW(0)
	MOVW R26,R18
	ST   X+,R30
	ST   X,R31
	ST   -Y,R21
	LDI  R30,LOW(3)
	ST   -Y,R30
	IN   R26,SPL
	IN   R27,SPH
	PUSH R17
	RCALL _SRF02_I2C_Read
	POP  R17
	MOV  R16,R30
	CPI  R16,0
	BREQ _0x32
	LDI  R31,0
	RJMP _0x2060002
_0x32:
	MOVW R30,R18
	MOVW R0,R30
	MOVW R26,R30
	LD   R30,X+
	LD   R31,X+
	MOVW R26,R30
	MOV  R30,R17
	LDI  R31,0
	OR   R30,R26
	OR   R31,R27
	MOVW R26,R0
	ST   X+,R30
	ST   X,R31
	MOV  R30,R16
	LDI  R31,0
	RJMP _0x2060002
; .FEND
;	ori -> R19
;	des -> R16
;	res -> R17

	.DSEG

	.CSEG
_FND_PORT_Init:
; .FSTART _FND_PORT_Init
	IN   R30,0x2
	ORI  R30,LOW(0xF0)
	OUT  0x2,R30
	LDS  R30,97
	ORI  R30,LOW(0xFF)
	STS  97,R30
	IN   R30,0x14
	ORI  R30,LOW(0xF)
	OUT  0x14,R30
	LDS  R30,100
	ORI  R30,0x10
	STS  100,R30
	SBI  0x17,5
	IN   R30,0x15
	ORI  R30,LOW(0xFF)
	OUT  0x15,R30
	RET
; .FEND
_compare:
; .FSTART _compare
	NOP
	RETI
; .FEND
_myDelay_us:
; .FSTART _myDelay_us
	RCALL __SAVELOCR4
	MOVW R18,R26
;	delay -> R18,R19
;	loop -> R16,R17
	__GETWRN 16,17,0
_0x5D:
	__CPWRR 16,17,18,19
	BRSH _0x5E
	__DELAY_USB 5
	__ADDWRN 16,17,1
	RJMP _0x5D
_0x5E:
	RJMP _0x2060003
; .FEND
_Buzzer_play:
; .FSTART _Buzzer_play
	RCALL __SAVELOCR6
	MOVW R20,R26
;	delay -> R20,R21
;	loop -> R16,R17
;	Play_Tim -> R19
	LDI  R19,0
	MOVW R30,R20
	LDI  R26,LOW(10000)
	LDI  R27,HIGH(10000)
	RCALL __DIVW21U
	MOV  R19,R30
	__GETWRN 16,17,0
_0x60:
	MOV  R30,R19
	MOVW R26,R16
	LDI  R31,0
	CP   R26,R30
	CPC  R27,R31
	BRSH _0x61
	LDS  R30,101
	ORI  R30,0x10
	RCALL SUBOPT_0x5
	LDS  R30,101
	ANDI R30,0xEF
	RCALL SUBOPT_0x5
	__ADDWRN 16,17,1
	RJMP _0x60
_0x61:
	RJMP _0x2060005
; .FEND
_KeyScan:
; .FSTART _KeyScan
	RCALL __SAVELOCR6
;	key_scan_line -> R16,R17
;	key_scan_loop -> R19
;	getPinData -> R18
;	key_num -> R20,R21
	__GETWRN 16,17,254
	LDI  R19,0
	LDI  R18,0
	__GETWRN 20,21,0
	LDI  R19,LOW(0)
_0x63:
	CPI  R19,4
	BRSH _0x64
	OUT  0x15,R16
	__DELAY_USB 5
	IN   R30,0x13
	ANDI R30,LOW(0xF0)
	MOV  R18,R30
	CPI  R18,0
	BREQ _0x65
	LDI  R31,0
	CPI  R30,LOW(0x10)
	LDI  R26,HIGH(0x10)
	CPC  R31,R26
	BRNE _0x69
	LDI  R30,LOW(4)
	MUL  R30,R19
	MOVW R30,R0
	ADIW R30,1
	RJMP _0x9E
_0x69:
	CPI  R30,LOW(0x20)
	LDI  R26,HIGH(0x20)
	CPC  R31,R26
	BRNE _0x6A
	LDI  R30,LOW(4)
	MUL  R30,R19
	MOVW R30,R0
	ADIW R30,2
	RJMP _0x9E
_0x6A:
	CPI  R30,LOW(0x40)
	LDI  R26,HIGH(0x40)
	CPC  R31,R26
	BRNE _0x6B
	LDI  R30,LOW(4)
	MUL  R30,R19
	MOVW R30,R0
	ADIW R30,3
	RJMP _0x9E
_0x6B:
	CPI  R30,LOW(0x80)
	LDI  R26,HIGH(0x80)
	CPC  R31,R26
	BRNE _0x68
	LDI  R30,LOW(4)
	MUL  R30,R19
	MOVW R30,R0
	ADIW R30,4
_0x9E:
	MOVW R20,R30
_0x68:
	MOV  R30,R20
	RJMP _0x2060005
_0x65:
	LSL  R16
	ROL  R17
	SUBI R19,-1
	RJMP _0x63
_0x64:
	RJMP _0x2060005
; .FEND
_Changenum:
; .FSTART _Changenum
	ST   -Y,R17
	ST   -Y,R16
	MOV  R16,R26
;	num -> R16
;	return_num -> R17
	LDI  R17,0
	CPI  R16,0
	BRNE _0x6D
	LDI  R17,LOW(0)
	RJMP _0x6E
_0x6D:
	MOV  R26,R16
	CLR  R27
	LDI  R30,LOW(4)
	LDI  R31,HIGH(4)
	RCALL __MODW21
	SBIW R30,0
	BRNE _0x6F
	RCALL SUBOPT_0x6
	SUBI R30,-LOW(12)
	MOV  R17,R30
	RJMP _0x70
_0x6F:
	RCALL SUBOPT_0x6
	SBIW R30,0
	BRNE _0x71
	RCALL SUBOPT_0x6
	RCALL SUBOPT_0x7
	ADD  R30,R0
	MOV  R17,R30
	RJMP _0x72
_0x71:
	RCALL SUBOPT_0x6
	CPI  R30,LOW(0x1)
	LDI  R26,HIGH(0x1)
	CPC  R31,R26
	BRNE _0x73
	RCALL SUBOPT_0x6
	RCALL SUBOPT_0x7
	MOV  R26,R0
	ADD  R26,R30
	SUBI R26,LOW(1)
	RJMP _0x9F
_0x73:
	RCALL SUBOPT_0x6
	CPI  R30,LOW(0x2)
	LDI  R26,HIGH(0x2)
	CPC  R31,R26
	BRNE _0x75
	RCALL SUBOPT_0x6
	RCALL SUBOPT_0x7
	MOV  R26,R0
	ADD  R26,R30
	SUBI R26,LOW(2)
	RJMP _0x9F
_0x75:
	RCALL SUBOPT_0x6
	CPI  R30,LOW(0x3)
	LDI  R26,HIGH(0x3)
	CPC  R31,R26
	BRNE _0x77
	RCALL SUBOPT_0x6
	RCALL SUBOPT_0x7
	MOV  R26,R0
	ADD  R26,R30
	SUBI R26,LOW(3)
_0x9F:
	MOV  R17,R26
_0x77:
_0x72:
_0x70:
_0x6E:
	CPI  R17,11
	BRNE _0x78
	LDI  R17,LOW(0)
	LDI  R30,LOW(1)
	MOV  R5,R30
_0x78:
	MOV  R30,R17
	RJMP _0x2060004
; .FEND
_OUTFND:
; .FSTART _OUTFND
	RCALL __SAVELOCR6
	MOVW R20,R26
;	t -> R20,R21
;	FND0 -> R17
;	FND1 -> R16
;	FND2 -> R19
;	FND3 -> R18
	LDI  R30,LOW(1000)
	LDI  R31,HIGH(1000)
	RCALL __DIVW21U
	MOV  R18,R30
	MOVW R26,R20
	LDI  R30,LOW(1000)
	LDI  R31,HIGH(1000)
	RCALL __MODW21U
	MOVW R26,R30
	LDI  R30,LOW(100)
	LDI  R31,HIGH(100)
	RCALL __DIVW21U
	MOV  R19,R30
	MOVW R26,R20
	LDI  R30,LOW(100)
	LDI  R31,HIGH(100)
	RCALL __MODW21U
	MOVW R26,R30
	LDI  R30,LOW(10)
	LDI  R31,HIGH(10)
	RCALL __DIVW21U
	MOV  R16,R30
	MOVW R26,R20
	LDI  R30,LOW(10)
	LDI  R31,HIGH(10)
	RCALL __MODW21U
	MOV  R17,R30
	LDS  R30,_Port_fnd
	OUT  0x3,R30
	MOV  R30,R17
	RCALL SUBOPT_0x8
	__GETB1MN _Port_fnd,2
	OUT  0x3,R30
	MOV  R30,R16
	RCALL SUBOPT_0x8
	__GETB1MN _Port_fnd,4
	OUT  0x3,R30
	MOV  R30,R19
	RCALL SUBOPT_0x8
	__GETB1MN _Port_fnd,6
	OUT  0x3,R30
	MOV  R30,R18
	RCALL SUBOPT_0x8
_0x2060005:
	RCALL __LOADLOCR6
_0x2060006:
	ADIW R28,6
	RET
; .FEND
_buzzer_play_function:
; .FSTART _buzzer_play_function
	ST   -Y,R17
	ST   -Y,R16
	MOVW R16,R26
;	t -> R16,R17
	MOVW R30,R16
	CPI  R30,LOW(0x1)
	LDI  R26,HIGH(0x1)
	CPC  R31,R26
	BRNE _0x7C
	LDI  R26,LOW(1908)
	LDI  R27,HIGH(1908)
	RCALL _Buzzer_play
	RJMP _0x7B
_0x7C:
	CPI  R30,LOW(0x2)
	LDI  R26,HIGH(0x2)
	CPC  R31,R26
	BRNE _0x7D
	LDI  R26,LOW(1700)
	LDI  R27,HIGH(1700)
	RCALL _Buzzer_play
	RJMP _0x7B
_0x7D:
	CPI  R30,LOW(0x3)
	LDI  R26,HIGH(0x3)
	CPC  R31,R26
	BRNE _0x7E
	LDI  R26,LOW(1515)
	LDI  R27,HIGH(1515)
	RCALL _Buzzer_play
	RJMP _0x7B
_0x7E:
	CPI  R30,LOW(0x4)
	LDI  R26,HIGH(0x4)
	CPC  R31,R26
	BRNE _0x7F
	LDI  R26,LOW(1432)
	LDI  R27,HIGH(1432)
	RCALL _Buzzer_play
	RJMP _0x7B
_0x7F:
	CPI  R30,LOW(0x5)
	LDI  R26,HIGH(0x5)
	CPC  R31,R26
	BRNE _0x80
	LDI  R26,LOW(1275)
	LDI  R27,HIGH(1275)
	RCALL _Buzzer_play
	RJMP _0x7B
_0x80:
	CPI  R30,LOW(0x6)
	LDI  R26,HIGH(0x6)
	CPC  R31,R26
	BRNE _0x81
	LDI  R26,LOW(1136)
	LDI  R27,HIGH(1136)
	RCALL _Buzzer_play
	RJMP _0x7B
_0x81:
	CPI  R30,LOW(0x7)
	LDI  R26,HIGH(0x7)
	CPC  R31,R26
	BRNE _0x82
	LDI  R26,LOW(1012)
	LDI  R27,HIGH(1012)
	RCALL _Buzzer_play
	RJMP _0x7B
_0x82:
	CPI  R30,LOW(0x8)
	LDI  R26,HIGH(0x8)
	CPC  R31,R26
	BRNE _0x83
	LDI  R26,LOW(954)
	LDI  R27,HIGH(954)
	RCALL _Buzzer_play
	RJMP _0x7B
_0x83:
	CPI  R30,LOW(0x9)
	LDI  R26,HIGH(0x9)
	CPC  R31,R26
	BRNE _0x85
	LDI  R26,LOW(850)
	LDI  R27,HIGH(850)
	RCALL _Buzzer_play
_0x85:
_0x7B:
_0x2060004:
	LD   R16,Y+
	LD   R17,Y+
	RET
; .FEND
;void Timer0_Init()
; 0000 000D {
_Timer0_Init:
; .FSTART _Timer0_Init
; 0000 000E TCCR0 = (1<<WGM01)|(1<<CS00)|(1<<CS01)|(1<<CS02);
	LDI  R30,LOW(15)
	OUT  0x33,R30
; 0000 000F TCNT0 = 0x00;
	LDI  R30,LOW(0)
	OUT  0x32,R30
; 0000 0010 OCR0 = 100;
	LDI  R30,LOW(100)
	OUT  0x31,R30
; 0000 0011 TIMSK = (1<<OCIE0);
	LDI  R30,LOW(2)
	OUT  0x37,R30
; 0000 0012 }
	RET
; .FEND
;interrupt[16] void timer0_comp(void)
; 0000 0015 {
_timer0_comp:
; .FSTART _timer0_comp
	ST   -Y,R30
	IN   R30,SREG
; 0000 0016 ti_Cnt_1ms++;
	INC  R4
; 0000 0017 LCD_DelCnt_1ms++;
	INC  R7
; 0000 0018 }
	OUT  SREG,R30
	LD   R30,Y+
	RETI
; .FEND
;int SRF_Run(char Sonar_Addr){
; 0000 001C int SRF_Run(char Sonar_Addr){
_SRF_Run:
; .FSTART _SRF_Run
; 0000 001D unsigned char res;
; 0000 001E unsigned int Sonar_range;
; 0000 001F 
; 0000 0020 res = getRange(Sonar_Addr, &Sonar_range);
	RCALL __SAVELOCR4
	MOV  R16,R26
;	Sonar_Addr -> R16
;	res -> R17
;	Sonar_range -> R18,R19
	ST   -Y,R16
	IN   R26,SPL
	IN   R27,SPH
	SBIW R26,1
	PUSH R19
	PUSH R18
	RCALL _getRange
	POP  R18
	POP  R19
	MOV  R17,R30
; 0000 0021 if(res)
	CPI  R17,0
	BREQ _0x86
; 0000 0022 {
; 0000 0023 return 0;
	LDI  R30,LOW(0)
	LDI  R31,HIGH(0)
	RJMP _0x2060003
; 0000 0024 }
; 0000 0025 else if(LCD_DelCnt_1ms > 100)
_0x86:
	LDI  R30,LOW(100)
	CP   R30,R7
	BRSH _0x88
; 0000 0026 {
; 0000 0027 LCD_DelCnt_1ms = 0;
	CLR  R7
; 0000 0028 return Sonar_range;
	MOVW R30,R18
; 0000 0029 }
; 0000 002A }
_0x88:
_0x2060003:
	RCALL __LOADLOCR4
	ADIW R28,4
	RET
; .FEND
;void main(void)
; 0000 002E {
_main:
; .FSTART _main
; 0000 002F unsigned char res;
; 0000 0030 char Sonar_Addr = 0xE0;
; 0000 0031 unsigned int Sonar_range_1 = 0,Sonar_range_2 = 0,Sonar_range_3 = 0;
; 0000 0032 char Message[40];
; 0000 0033 int readCnt = 0;
; 0000 0034 int t=0; //키패드로 받은 숫자
; 0000 0035 int count =0; //count 변수
; 0000 0036 int finalnum=0; //FND에 출력으로 넣어줄 변수
; 0000 0037 int fnd[4]={0,0,0,0};
; 0000 0038 signed int angle=0; // 서브모터 각도로 넣을 변수
; 0000 0039 
; 0000 003A DDRD |= 0x03;
	SBIW R28,60
	LDI  R24,60
	__GETWRN 22,23,0
	LDI  R30,LOW(_0x89*2)
	LDI  R31,HIGH(_0x89*2)
	RCALL __INITLOCB
;	res -> R17
;	Sonar_Addr -> R16
;	Sonar_range_1 -> R18,R19
;	Sonar_range_2 -> R20,R21
;	Sonar_range_3 -> Y+58
;	Message -> Y+18
;	readCnt -> Y+16
;	t -> Y+14
;	count -> Y+12
;	finalnum -> Y+10
;	fnd -> Y+2
;	angle -> Y+0
	LDI  R16,224
	__GETWRN 18,19,0
	__GETWRN 20,21,0
	IN   R30,0x11
	ORI  R30,LOW(0x3)
	OUT  0x11,R30
; 0000 003B LCD_Init();
	RCALL _LCD_Init
; 0000 003C Timer0_Init();
	RCALL _Timer0_Init
; 0000 003D FND_PORT_Init(); // 포트들 입출력 초기 설정
	RCALL _FND_PORT_Init
; 0000 003E Init_TWI();
	RCALL _Init_TWI
; 0000 003F delay_ms(1000);
	LDI  R26,LOW(1000)
	LDI  R27,HIGH(1000)
	RCALL _delay_ms
; 0000 0040 SREG |= 0x80;
	BSET 7
; 0000 0041 
; 0000 0042 
; 0000 0043 startRanging(Sonar_Addr);
	MOV  R26,R16
	RCALL _startRanging
; 0000 0044 ti_Cnt_1ms = 0;
	CLR  R4
; 0000 0045 LCD_DelCnt_1ms = 0;
	CLR  R7
; 0000 0046 
; 0000 0047 while(1)
_0x8A:
; 0000 0048 {
; 0000 0049 
; 0000 004A if(ti_Cnt_1ms > 100)
	LDI  R30,LOW(100)
	CP   R30,R4
	BRSH _0x8D
; 0000 004B {
; 0000 004C 
; 0000 004D 
; 0000 004E 
; 0000 004F if (Sonar_Addr == 0xE0){
	CPI  R16,224
	BRNE _0x8E
; 0000 0050 Sonar_Addr = 0xEC;
	LDI  R16,LOW(236)
; 0000 0051 startRanging(Sonar_Addr);
	RCALL SUBOPT_0x9
; 0000 0052 Sonar_range_1 = SRF_Run(Sonar_Addr);
	MOVW R18,R30
; 0000 0053 }
; 0000 0054 else if (Sonar_Addr == 0xEC) {
	RJMP _0x8F
_0x8E:
	CPI  R16,236
	BRNE _0x90
; 0000 0055 Sonar_Addr = 0xE2;
	LDI  R16,LOW(226)
; 0000 0056 startRanging(Sonar_Addr);
	RCALL SUBOPT_0x9
; 0000 0057 Sonar_range_2 = SRF_Run(Sonar_Addr);
	MOVW R20,R30
; 0000 0058 }
; 0000 0059 else{
	RJMP _0x91
_0x90:
; 0000 005A Sonar_Addr = 0xE0;
	LDI  R16,LOW(224)
; 0000 005B startRanging(Sonar_Addr);
	RCALL SUBOPT_0x9
; 0000 005C Sonar_range_3 = SRF_Run(Sonar_Addr);
	STD  Y+58,R30
	STD  Y+58+1,R31
; 0000 005D }
_0x91:
_0x8F:
; 0000 005E 
; 0000 005F 
; 0000 0060 
; 0000 0061 LCD_Clear();
	RCALL _LCD_Clear
; 0000 0062 sprintf(Message, "%03dcm", Sonar_range_1);
	RCALL SUBOPT_0xA
	MOVW R30,R18
	RCALL SUBOPT_0xB
; 0000 0063 LCD_Pos(0,0);
	LDI  R30,LOW(0)
	RCALL SUBOPT_0xC
; 0000 0064 LCD_Str(Message);
; 0000 0065 
; 0000 0066 sprintf(Message, "%03dcm", Sonar_range_2);
	MOVW R30,R20
	RCALL SUBOPT_0xB
; 0000 0067 LCD_Pos(1,0);
	LDI  R30,LOW(1)
	RCALL SUBOPT_0xC
; 0000 0068 LCD_Str(Message);
; 0000 0069 
; 0000 006A sprintf(Message, "%03dcm", Sonar_range_3);
	LDD  R30,Y+62
	LDD  R31,Y+62+1
	RCALL SUBOPT_0xB
; 0000 006B LCD_Pos(1,5);
	LDI  R30,LOW(1)
	ST   -Y,R30
	LDI  R26,LOW(5)
	RCALL _LCD_Pos
; 0000 006C LCD_Str(Message);
	MOVW R26,R28
	ADIW R26,18
	RCALL _LCD_Str
; 0000 006D 
; 0000 006E LCD_DelCnt_1ms = 0;
	CLR  R7
; 0000 006F ti_Cnt_1ms = 0;
	CLR  R4
; 0000 0070 }
; 0000 0071 
; 0000 0072 
; 0000 0073 
; 0000 0074 t= Changenum(KeyScan());
_0x8D:
	RCALL _KeyScan
	MOV  R26,R30
	RCALL _Changenum
	LDI  R31,0
	STD  Y+14,R30
	STD  Y+14+1,R31
; 0000 0075 if(t<10 & t>0 ) //숫자가 눌리면 새로운 값을 저장하도록 count값 설정
	LDD  R26,Y+14
	LDD  R27,Y+14+1
	LDI  R30,LOW(10)
	LDI  R31,HIGH(10)
	RCALL __LTW12
	MOV  R0,R30
	RCALL SUBOPT_0xD
	RCALL __GTW12
	AND  R30,R0
	BREQ _0x92
; 0000 0076 {
; 0000 0077 count++;
	RCALL SUBOPT_0xE
; 0000 0078 delay_ms(50);
	LDI  R26,LOW(50)
	LDI  R27,0
	RCALL _delay_ms
; 0000 0079 }
; 0000 007A else if(t==0 & zero_flag) //zero_flag가 실행된 경우에만 0으로 입력
	RJMP _0x93
_0x92:
	RCALL SUBOPT_0xD
	RCALL __EQW12
	AND  R30,R5
	BREQ _0x94
; 0000 007B {
; 0000 007C count++;
	RCALL SUBOPT_0xE
; 0000 007D zero_flag =0; //계속 0으로 입력된 상태가 안되게 zero_flag를 다시 0으로
	CLR  R5
; 0000 007E delay_ms(50);
	LDI  R26,LOW(50)
	LDI  R27,0
	RCALL _delay_ms
; 0000 007F }
; 0000 0080 else if(t==13) // FND 출력숫자 리셋버튼 기능
	RJMP _0x95
_0x94:
	LDD  R26,Y+14
	LDD  R27,Y+14+1
	SBIW R26,13
	BRNE _0x96
; 0000 0081 {
; 0000 0082 fnd[0]=0,fnd[1]=0,fnd[2]=0,fnd[3]=0;
	LDI  R30,LOW(0)
	STD  Y+2,R30
	STD  Y+2+1,R30
	STD  Y+4,R30
	STD  Y+4+1,R30
	STD  Y+6,R30
	STD  Y+6+1,R30
	STD  Y+8,R30
	STD  Y+8+1,R30
; 0000 0083 }
; 0000 0084 else if (t ==14) //현재 FND의 숫자각도만큼 모터각도 변경
	RJMP _0x97
_0x96:
	LDD  R26,Y+14
	LDD  R27,Y+14+1
	SBIW R26,14
	BRNE _0x98
; 0000 0085 {
; 0000 0086 angle = finalnum%360;
	LDD  R26,Y+10
	LDD  R27,Y+10+1
	LDI  R30,LOW(360)
	LDI  R31,HIGH(360)
	RCALL __MODW21
	ST   Y,R30
	STD  Y+1,R31
; 0000 0087 if(angle >= 180){ //예제 모터는 90도까지만되나 180도 이상은
	LD   R26,Y
	LDD  R27,Y+1
	CPI  R26,LOW(0xB4)
	LDI  R30,HIGH(0xB4)
	CPC  R27,R30
	BRLT _0x99
; 0000 0088 angle -= 360; //-각도로 생각
	LD   R30,Y
	LDD  R31,Y+1
	SUBI R30,LOW(360)
	SBCI R31,HIGH(360)
	ST   Y,R30
	STD  Y+1,R31
; 0000 0089 }
; 0000 008A OCR1A = 2765 + 10.249*angle; //1도단위까지도 입력 가능
_0x99:
	LD   R30,Y
	LDD  R31,Y+1
	__CWD1
	RCALL __CDF1
	__GETD2N 0x4123FBE7
	RCALL __MULF12
	__GETD2N 0x452CD000
	RCALL __ADDF12
	RCALL __CFD1U
	OUT  0x2A+1,R31
	OUT  0x2A,R30
; 0000 008B }
; 0000 008C 
; 0000 008D if((count%2) ==0){ //count가 짝수일때 들어온 t값을 저장하고
_0x98:
_0x97:
_0x95:
_0x93:
	LDD  R26,Y+12
	LDD  R27,Y+12+1
	LDI  R30,LOW(2)
	LDI  R31,HIGH(2)
	RCALL __MODW21
	SBIW R30,0
	BRNE _0x9A
; 0000 008E //다시 count를 홀수로 만듬
; 0000 008F fnd[3] = fnd[2];
	LDD  R30,Y+6
	LDD  R31,Y+6+1
	STD  Y+8,R30
	STD  Y+8+1,R31
; 0000 0090 delay_ms(50);
	LDI  R26,LOW(50)
	LDI  R27,0
	RCALL _delay_ms
; 0000 0091 fnd[2] = fnd[1];
	LDD  R30,Y+4
	LDD  R31,Y+4+1
	STD  Y+6,R30
	STD  Y+6+1,R31
; 0000 0092 delay_ms(50);
	LDI  R26,LOW(50)
	LDI  R27,0
	RCALL _delay_ms
; 0000 0093 fnd[1] = fnd[0];
	LDD  R30,Y+2
	LDD  R31,Y+2+1
	STD  Y+4,R30
	STD  Y+4+1,R31
; 0000 0094 delay_ms(50);
	LDI  R26,LOW(50)
	LDI  R27,0
	RCALL _delay_ms
; 0000 0095 fnd[0] = t;
	LDD  R30,Y+14
	LDD  R31,Y+14+1
	STD  Y+2,R30
	STD  Y+2+1,R31
; 0000 0096 count++;
	RCALL SUBOPT_0xE
; 0000 0097 delay_ms(50);
	LDI  R26,LOW(50)
	LDI  R27,0
	RCALL _delay_ms
; 0000 0098 }
; 0000 0099 finalnum = 1000*fnd[3] + 100*fnd[2] + 10*fnd[1] + fnd[0];
_0x9A:
	LDD  R30,Y+8
	LDD  R31,Y+8+1
	LDI  R26,LOW(1000)
	LDI  R27,HIGH(1000)
	RCALL __MULW12
	MOVW R22,R30
	LDD  R30,Y+6
	LDD  R31,Y+6+1
	LDI  R26,LOW(100)
	LDI  R27,HIGH(100)
	RCALL __MULW12
	__ADDWRR 22,23,30,31
	LDD  R30,Y+4
	LDD  R31,Y+4+1
	LDI  R26,LOW(10)
	LDI  R27,HIGH(10)
	RCALL __MULW12
	ADD  R30,R22
	ADC  R31,R23
	LDD  R26,Y+2
	LDD  R27,Y+2+1
	ADD  R30,R26
	ADC  R31,R27
	STD  Y+10,R30
	STD  Y+10+1,R31
; 0000 009A 
; 0000 009B OUTFND(finalnum); //FND 출력
	LDD  R26,Y+10
	LDD  R27,Y+10+1
	RCALL _OUTFND
; 0000 009C buzzer_play_function(t); //숫자에 맞는 음 출력
	LDD  R26,Y+14
	LDD  R27,Y+14+1
	RCALL _buzzer_play_function
; 0000 009D 
; 0000 009E 
; 0000 009F 
; 0000 00A0 
; 0000 00A1 
; 0000 00A2 }
	RJMP _0x8A
; 0000 00A3 }
_0x9B:
	RJMP _0x9B
; .FEND
	#ifndef __SLEEP_DEFINED__
	#define __SLEEP_DEFINED__
	.EQU __se_bit=0x20
	.EQU __sm_mask=0x1C
	.EQU __sm_powerdown=0x10
	.EQU __sm_powersave=0x18
	.EQU __sm_standby=0x14
	.EQU __sm_ext_standby=0x1C
	.EQU __sm_adc_noise_red=0x08
	.SET power_ctrl_reg=mcucr
	#endif

	.CSEG
_put_buff_G100:
; .FSTART _put_buff_G100
	RCALL __SAVELOCR6
	MOVW R18,R26
	LDD  R21,Y+6
	ADIW R26,2
	__GETW1P
	SBIW R30,0
	BREQ _0x2000010
	MOVW R26,R18
	RCALL SUBOPT_0xF
	MOVW R16,R30
	SBIW R30,0
	BREQ _0x2000012
	__CPWRN 16,17,2
	BRLO _0x2000013
	MOVW R30,R16
	SBIW R30,1
	MOVW R16,R30
	__PUTW1RNS 18,4
_0x2000012:
	MOVW R26,R18
	ADIW R26,2
	RCALL SUBOPT_0x10
	SBIW R30,1
	ST   Z,R21
_0x2000013:
	MOVW R26,R18
	__GETW1P
	TST  R31
	BRMI _0x2000014
	RCALL SUBOPT_0x10
_0x2000014:
	RJMP _0x2000015
_0x2000010:
	MOVW R26,R18
	LDI  R30,LOW(65535)
	LDI  R31,HIGH(65535)
	ST   X+,R30
	ST   X,R31
_0x2000015:
_0x2060002:
	RCALL __LOADLOCR6
	ADIW R28,7
	RET
; .FEND
__print_G100:
; .FSTART __print_G100
	ST   -Y,R27
	ST   -Y,R26
	SBIW R28,6
	RCALL __SAVELOCR6
	LDI  R17,0
	LDD  R26,Y+12
	LDD  R27,Y+12+1
	LDI  R30,LOW(0)
	LDI  R31,HIGH(0)
	ST   X+,R30
	ST   X,R31
_0x2000016:
	LDD  R30,Y+18
	LDD  R31,Y+18+1
	ADIW R30,1
	STD  Y+18,R30
	STD  Y+18+1,R31
	SBIW R30,1
	LPM  R30,Z
	MOV  R18,R30
	CPI  R30,0
	BRNE PC+2
	RJMP _0x2000018
	MOV  R30,R17
	CPI  R30,0
	BRNE _0x200001C
	CPI  R18,37
	BRNE _0x200001D
	LDI  R17,LOW(1)
	RJMP _0x200001E
_0x200001D:
	RCALL SUBOPT_0x11
_0x200001E:
	RJMP _0x200001B
_0x200001C:
	CPI  R30,LOW(0x1)
	BRNE _0x200001F
	CPI  R18,37
	BRNE _0x2000020
	RCALL SUBOPT_0x11
	RJMP _0x20000CC
_0x2000020:
	LDI  R17,LOW(2)
	LDI  R20,LOW(0)
	LDI  R16,LOW(0)
	CPI  R18,45
	BRNE _0x2000021
	LDI  R16,LOW(1)
	RJMP _0x200001B
_0x2000021:
	CPI  R18,43
	BRNE _0x2000022
	LDI  R20,LOW(43)
	RJMP _0x200001B
_0x2000022:
	CPI  R18,32
	BRNE _0x2000023
	LDI  R20,LOW(32)
	RJMP _0x200001B
_0x2000023:
	RJMP _0x2000024
_0x200001F:
	CPI  R30,LOW(0x2)
	BRNE _0x2000025
_0x2000024:
	LDI  R21,LOW(0)
	LDI  R17,LOW(3)
	CPI  R18,48
	BRNE _0x2000026
	ORI  R16,LOW(128)
	RJMP _0x200001B
_0x2000026:
	RJMP _0x2000027
_0x2000025:
	CPI  R30,LOW(0x3)
	BREQ PC+2
	RJMP _0x200001B
_0x2000027:
	CPI  R18,48
	BRLO _0x200002A
	CPI  R18,58
	BRLO _0x200002B
_0x200002A:
	RJMP _0x2000029
_0x200002B:
	LDI  R26,LOW(10)
	MUL  R21,R26
	MOV  R21,R0
	MOV  R30,R18
	SUBI R30,LOW(48)
	ADD  R21,R30
	RJMP _0x200001B
_0x2000029:
	MOV  R30,R18
	CPI  R30,LOW(0x63)
	BRNE _0x200002F
	RCALL SUBOPT_0x12
	LDD  R30,Y+16
	LDD  R31,Y+16+1
	LDD  R26,Z+4
	ST   -Y,R26
	RCALL SUBOPT_0x13
	RJMP _0x2000030
_0x200002F:
	CPI  R30,LOW(0x73)
	BRNE _0x2000032
	RCALL SUBOPT_0x12
	RCALL SUBOPT_0x14
	RCALL _strlen
	MOV  R17,R30
	RJMP _0x2000033
_0x2000032:
	CPI  R30,LOW(0x70)
	BRNE _0x2000035
	RCALL SUBOPT_0x12
	RCALL SUBOPT_0x14
	RCALL _strlenf
	MOV  R17,R30
	ORI  R16,LOW(8)
_0x2000033:
	ORI  R16,LOW(2)
	ANDI R16,LOW(127)
	LDI  R19,LOW(0)
	RJMP _0x2000036
_0x2000035:
	CPI  R30,LOW(0x64)
	BREQ _0x2000039
	CPI  R30,LOW(0x69)
	BRNE _0x200003A
_0x2000039:
	ORI  R16,LOW(4)
	RJMP _0x200003B
_0x200003A:
	CPI  R30,LOW(0x75)
	BRNE _0x200003C
_0x200003B:
	LDI  R30,LOW(_tbl10_G100*2)
	LDI  R31,HIGH(_tbl10_G100*2)
	STD  Y+6,R30
	STD  Y+6+1,R31
	LDI  R17,LOW(5)
	RJMP _0x200003D
_0x200003C:
	CPI  R30,LOW(0x58)
	BRNE _0x200003F
	ORI  R16,LOW(8)
	RJMP _0x2000040
_0x200003F:
	CPI  R30,LOW(0x78)
	BREQ PC+2
	RJMP _0x2000071
_0x2000040:
	LDI  R30,LOW(_tbl16_G100*2)
	LDI  R31,HIGH(_tbl16_G100*2)
	STD  Y+6,R30
	STD  Y+6+1,R31
	LDI  R17,LOW(4)
_0x200003D:
	SBRS R16,2
	RJMP _0x2000042
	RCALL SUBOPT_0x12
	LDD  R26,Y+16
	LDD  R27,Y+16+1
	ADIW R26,4
	LD   R30,X+
	LD   R31,X+
	STD  Y+10,R30
	STD  Y+10+1,R31
	LDD  R26,Y+11
	TST  R26
	BRPL _0x2000043
	RCALL __ANEGW1
	STD  Y+10,R30
	STD  Y+10+1,R31
	LDI  R20,LOW(45)
_0x2000043:
	CPI  R20,0
	BREQ _0x2000044
	SUBI R17,-LOW(1)
	RJMP _0x2000045
_0x2000044:
	ANDI R16,LOW(251)
_0x2000045:
	RJMP _0x2000046
_0x2000042:
	RCALL SUBOPT_0x12
	LDD  R26,Y+16
	LDD  R27,Y+16+1
	RCALL SUBOPT_0xF
	STD  Y+10,R30
	STD  Y+10+1,R31
_0x2000046:
_0x2000036:
	SBRC R16,0
	RJMP _0x2000047
_0x2000048:
	CP   R17,R21
	BRSH _0x200004A
	SBRS R16,7
	RJMP _0x200004B
	SBRS R16,2
	RJMP _0x200004C
	ANDI R16,LOW(251)
	MOV  R18,R20
	SUBI R17,LOW(1)
	RJMP _0x200004D
_0x200004C:
	LDI  R18,LOW(48)
_0x200004D:
	RJMP _0x200004E
_0x200004B:
	LDI  R18,LOW(32)
_0x200004E:
	RCALL SUBOPT_0x11
	SUBI R21,LOW(1)
	RJMP _0x2000048
_0x200004A:
_0x2000047:
	MOV  R19,R17
	SBRS R16,1
	RJMP _0x200004F
_0x2000050:
	CPI  R19,0
	BREQ _0x2000052
	SBRS R16,3
	RJMP _0x2000053
	LDD  R30,Y+6
	LDD  R31,Y+6+1
	LPM  R18,Z+
	STD  Y+6,R30
	STD  Y+6+1,R31
	RJMP _0x2000054
_0x2000053:
	LDD  R26,Y+6
	LDD  R27,Y+6+1
	LD   R18,X+
	STD  Y+6,R26
	STD  Y+6+1,R27
_0x2000054:
	RCALL SUBOPT_0x11
	CPI  R21,0
	BREQ _0x2000055
	SUBI R21,LOW(1)
_0x2000055:
	SUBI R19,LOW(1)
	RJMP _0x2000050
_0x2000052:
	RJMP _0x2000056
_0x200004F:
_0x2000058:
	LDI  R18,LOW(48)
	LDD  R30,Y+6
	LDD  R31,Y+6+1
	RCALL __GETW1PF
	STD  Y+8,R30
	STD  Y+8+1,R31
	LDD  R30,Y+6
	LDD  R31,Y+6+1
	ADIW R30,2
	STD  Y+6,R30
	STD  Y+6+1,R31
_0x200005A:
	LDD  R30,Y+8
	LDD  R31,Y+8+1
	LDD  R26,Y+10
	LDD  R27,Y+10+1
	CP   R26,R30
	CPC  R27,R31
	BRLO _0x200005C
	SUBI R18,-LOW(1)
	LDD  R26,Y+8
	LDD  R27,Y+8+1
	LDD  R30,Y+10
	LDD  R31,Y+10+1
	SUB  R30,R26
	SBC  R31,R27
	STD  Y+10,R30
	STD  Y+10+1,R31
	RJMP _0x200005A
_0x200005C:
	CPI  R18,58
	BRLO _0x200005D
	SBRS R16,3
	RJMP _0x200005E
	SUBI R18,-LOW(7)
	RJMP _0x200005F
_0x200005E:
	SUBI R18,-LOW(39)
_0x200005F:
_0x200005D:
	SBRC R16,4
	RJMP _0x2000061
	CPI  R18,49
	BRSH _0x2000063
	LDD  R26,Y+8
	LDD  R27,Y+8+1
	SBIW R26,1
	BRNE _0x2000062
_0x2000063:
	RJMP _0x20000CD
_0x2000062:
	CP   R21,R19
	BRLO _0x2000067
	SBRS R16,0
	RJMP _0x2000068
_0x2000067:
	RJMP _0x2000066
_0x2000068:
	LDI  R18,LOW(32)
	SBRS R16,7
	RJMP _0x2000069
	LDI  R18,LOW(48)
_0x20000CD:
	ORI  R16,LOW(16)
	SBRS R16,2
	RJMP _0x200006A
	ANDI R16,LOW(251)
	ST   -Y,R20
	RCALL SUBOPT_0x13
	CPI  R21,0
	BREQ _0x200006B
	SUBI R21,LOW(1)
_0x200006B:
_0x200006A:
_0x2000069:
_0x2000061:
	RCALL SUBOPT_0x11
	CPI  R21,0
	BREQ _0x200006C
	SUBI R21,LOW(1)
_0x200006C:
_0x2000066:
	SUBI R19,LOW(1)
	LDD  R26,Y+8
	LDD  R27,Y+8+1
	SBIW R26,2
	BRLO _0x2000059
	RJMP _0x2000058
_0x2000059:
_0x2000056:
	SBRS R16,0
	RJMP _0x200006D
_0x200006E:
	CPI  R21,0
	BREQ _0x2000070
	SUBI R21,LOW(1)
	LDI  R30,LOW(32)
	ST   -Y,R30
	RCALL SUBOPT_0x13
	RJMP _0x200006E
_0x2000070:
_0x200006D:
_0x2000071:
_0x2000030:
_0x20000CC:
	LDI  R17,LOW(0)
_0x200001B:
	RJMP _0x2000016
_0x2000018:
	LDD  R26,Y+12
	LDD  R27,Y+12+1
	LD   R30,X+
	LD   R31,X+
	RCALL __LOADLOCR6
	ADIW R28,20
	RET
; .FEND
_sprintf:
; .FSTART _sprintf
	PUSH R15
	MOV  R15,R24
	SBIW R28,6
	RCALL __SAVELOCR6
	MOVW R30,R28
	__ADDW1R15
	__GETWRZ 20,21,14
	MOV  R0,R20
	OR   R0,R21
	BRNE _0x2000072
	LDI  R30,LOW(65535)
	LDI  R31,HIGH(65535)
	RJMP _0x2060001
_0x2000072:
	MOVW R26,R28
	ADIW R26,8
	__ADDW2R15
	MOVW R16,R26
	__PUTWSR 20,21,8
	LDI  R30,LOW(0)
	STD  Y+10,R30
	STD  Y+10+1,R30
	MOVW R26,R28
	ADIW R26,12
	__ADDW2R15
	LD   R30,X+
	LD   R31,X+
	ST   -Y,R31
	ST   -Y,R30
	ST   -Y,R17
	ST   -Y,R16
	LDI  R30,LOW(_put_buff_G100)
	LDI  R31,HIGH(_put_buff_G100)
	ST   -Y,R31
	ST   -Y,R30
	MOVW R26,R28
	ADIW R26,12
	RCALL __print_G100
	MOVW R18,R30
	LDD  R26,Y+8
	LDD  R27,Y+8+1
	LDI  R30,LOW(0)
	ST   X,R30
	MOVW R30,R18
_0x2060001:
	RCALL __LOADLOCR6
	ADIW R28,12
	POP  R15
	RET
; .FEND

	.CSEG

	.CSEG
_strlen:
; .FSTART _strlen
	ST   -Y,R27
	ST   -Y,R26
    ld   r26,y+
    ld   r27,y+
    clr  r30
    clr  r31
strlen0:
    ld   r22,x+
    tst  r22
    breq strlen1
    adiw r30,1
    rjmp strlen0
strlen1:
    ret
; .FEND
_strlenf:
; .FSTART _strlenf
	ST   -Y,R27
	ST   -Y,R26
    clr  r26
    clr  r27
    ld   r30,y+
    ld   r31,y+
strlenf0:
	lpm  r0,z+
    tst  r0
    breq strlenf1
    adiw r26,1
    rjmp strlenf0
strlenf1:
    movw r30,r26
    ret
; .FEND

	.DSEG
_Port_char:
	.BYTE 0x10
_Port_fnd:
	.BYTE 0x8

	.CSEG
;OPTIMIZER ADDED SUBROUTINE, CALLED 2 TIMES, CODE SIZE REDUCTION:1 WORDS
SUBOPT_0x0:
	ST   -Y,R17
	MOV  R17,R26
	LDS  R30,101
	RET

;OPTIMIZER ADDED SUBROUTINE, CALLED 4 TIMES, CODE SIZE REDUCTION:7 WORDS
SUBOPT_0x1:
	STS  101,R30
	LDS  R30,101
	RET

;OPTIMIZER ADDED SUBROUTINE, CALLED 2 TIMES, CODE SIZE REDUCTION:12 WORDS
SUBOPT_0x2:
	ORI  R30,1
	STS  101,R30
	__DELAY_USB 246
	OUT  0x1B,R17
	__DELAY_USB 246
	LDS  R30,101
	ANDI R30,0xFE
	STS  101,R30
	RET

;OPTIMIZER ADDED SUBROUTINE, CALLED 3 TIMES, CODE SIZE REDUCTION:4 WORDS
SUBOPT_0x3:
	LDI  R26,LOW(56)
	RCALL _LCD_Comm
	LDI  R26,LOW(4)
	RJMP _LCD_delay

;OPTIMIZER ADDED SUBROUTINE, CALLED 2 TIMES, CODE SIZE REDUCTION:4 WORDS
SUBOPT_0x4:
	ST   -Y,R17
	MOV  R17,R26
	STS  115,R17
	LDI  R30,LOW(132)
	STS  116,R30
	RET

;OPTIMIZER ADDED SUBROUTINE, CALLED 2 TIMES, CODE SIZE REDUCTION:1 WORDS
SUBOPT_0x5:
	STS  101,R30
	MOVW R26,R20
	RJMP _myDelay_us

;OPTIMIZER ADDED SUBROUTINE, CALLED 9 TIMES, CODE SIZE REDUCTION:30 WORDS
SUBOPT_0x6:
	MOV  R26,R16
	LDI  R27,0
	LDI  R30,LOW(4)
	LDI  R31,HIGH(4)
	RCALL __DIVW21
	RET

;OPTIMIZER ADDED SUBROUTINE, CALLED 4 TIMES, CODE SIZE REDUCTION:19 WORDS
SUBOPT_0x7:
	LSL  R30
	LSL  R30
	MOV  R0,R30
	MOV  R30,R16
	LDI  R31,0
	LDI  R26,LOW(3)
	LDI  R27,HIGH(3)
	RCALL __MANDW12
	RET

;OPTIMIZER ADDED SUBROUTINE, CALLED 4 TIMES, CODE SIZE REDUCTION:22 WORDS
SUBOPT_0x8:
	LDI  R31,0
	SUBI R30,LOW(-_Port_char)
	SBCI R31,HIGH(-_Port_char)
	LD   R30,Z
	STS  98,R30
	LDI  R26,LOW(10)
	LDI  R27,0
	RJMP _delay_ms

;OPTIMIZER ADDED SUBROUTINE, CALLED 3 TIMES, CODE SIZE REDUCTION:4 WORDS
SUBOPT_0x9:
	MOV  R26,R16
	RCALL _startRanging
	MOV  R26,R16
	RJMP _SRF_Run

;OPTIMIZER ADDED SUBROUTINE, CALLED 3 TIMES, CODE SIZE REDUCTION:12 WORDS
SUBOPT_0xA:
	MOVW R30,R28
	ADIW R30,18
	ST   -Y,R31
	ST   -Y,R30
	__POINTW1FN _0x0,21
	ST   -Y,R31
	ST   -Y,R30
	RET

;OPTIMIZER ADDED SUBROUTINE, CALLED 3 TIMES, CODE SIZE REDUCTION:8 WORDS
SUBOPT_0xB:
	CLR  R22
	CLR  R23
	RCALL __PUTPARD1
	LDI  R24,4
	RCALL _sprintf
	ADIW R28,8
	RET

;OPTIMIZER ADDED SUBROUTINE, CALLED 2 TIMES, CODE SIZE REDUCTION:4 WORDS
SUBOPT_0xC:
	ST   -Y,R30
	LDI  R26,LOW(0)
	RCALL _LCD_Pos
	MOVW R26,R28
	ADIW R26,18
	RCALL _LCD_Str
	RJMP SUBOPT_0xA

;OPTIMIZER ADDED SUBROUTINE, CALLED 2 TIMES, CODE SIZE REDUCTION:1 WORDS
SUBOPT_0xD:
	LDD  R26,Y+14
	LDD  R27,Y+14+1
	LDI  R30,LOW(0)
	LDI  R31,HIGH(0)
	RET

;OPTIMIZER ADDED SUBROUTINE, CALLED 3 TIMES, CODE SIZE REDUCTION:6 WORDS
SUBOPT_0xE:
	LDD  R30,Y+12
	LDD  R31,Y+12+1
	ADIW R30,1
	STD  Y+12,R30
	STD  Y+12+1,R31
	RET

;OPTIMIZER ADDED SUBROUTINE, CALLED 2 TIMES, CODE SIZE REDUCTION:1 WORDS
SUBOPT_0xF:
	ADIW R26,4
	__GETW1P
	RET

;OPTIMIZER ADDED SUBROUTINE, CALLED 2 TIMES, CODE SIZE REDUCTION:2 WORDS
SUBOPT_0x10:
	LD   R30,X+
	LD   R31,X+
	ADIW R30,1
	ST   -X,R31
	ST   -X,R30
	RET

;OPTIMIZER ADDED SUBROUTINE, CALLED 5 TIMES, CODE SIZE REDUCTION:18 WORDS
SUBOPT_0x11:
	ST   -Y,R18
	LDD  R26,Y+13
	LDD  R27,Y+13+1
	LDD  R30,Y+15
	LDD  R31,Y+15+1
	ICALL
	RET

;OPTIMIZER ADDED SUBROUTINE, CALLED 5 TIMES, CODE SIZE REDUCTION:14 WORDS
SUBOPT_0x12:
	LDD  R30,Y+16
	LDD  R31,Y+16+1
	SBIW R30,4
	STD  Y+16,R30
	STD  Y+16+1,R31
	RET

;OPTIMIZER ADDED SUBROUTINE, CALLED 3 TIMES, CODE SIZE REDUCTION:6 WORDS
SUBOPT_0x13:
	LDD  R26,Y+13
	LDD  R27,Y+13+1
	LDD  R30,Y+15
	LDD  R31,Y+15+1
	ICALL
	RET

;OPTIMIZER ADDED SUBROUTINE, CALLED 2 TIMES, CODE SIZE REDUCTION:6 WORDS
SUBOPT_0x14:
	LDD  R26,Y+16
	LDD  R27,Y+16+1
	ADIW R26,4
	LD   R30,X+
	LD   R31,X+
	STD  Y+6,R30
	STD  Y+6+1,R31
	LDD  R26,Y+6
	LDD  R27,Y+6+1
	RET

;RUNTIME LIBRARY

	.CSEG
__SAVELOCR6:
	ST   -Y,R21
__SAVELOCR5:
	ST   -Y,R20
__SAVELOCR4:
	ST   -Y,R19
__SAVELOCR3:
	ST   -Y,R18
__SAVELOCR2:
	ST   -Y,R17
	ST   -Y,R16
	RET

__LOADLOCR6:
	LDD  R21,Y+5
__LOADLOCR5:
	LDD  R20,Y+4
__LOADLOCR4:
	LDD  R19,Y+3
__LOADLOCR3:
	LDD  R18,Y+2
__LOADLOCR2:
	LDD  R17,Y+1
	LD   R16,Y
	RET

__INITLOCB:
__INITLOCW:
	PUSH R26
	PUSH R27
	MOVW R26,R22
	ADD  R26,R28
	ADC  R27,R29
__INITLOC0:
	LPM  R0,Z+
	ST   X+,R0
	DEC  R24
	BRNE __INITLOC0
	POP  R27
	POP  R26
	RET

__ANEGW1:
	NEG  R31
	NEG  R30
	SBCI R31,0
	RET

__ANEGD1:
	COM  R31
	COM  R22
	COM  R23
	NEG  R30
	SBCI R31,-1
	SBCI R22,-1
	SBCI R23,-1
	RET

__EQW12:
	CP   R30,R26
	CPC  R31,R27
	LDI  R30,1
	BREQ __EQW12T
	CLR  R30
__EQW12T:
	RET

__LTW12:
	CP   R26,R30
	CPC  R27,R31
	LDI  R30,1
	BRLT __LTW12T
	CLR  R30
__LTW12T:
	RET

__GTW12:
	CP   R30,R26
	CPC  R31,R27
	LDI  R30,1
	BRLT __GTW12T
	CLR  R30
__GTW12T:
	RET

__MULW12U:
	MUL  R31,R26
	MOV  R31,R0
	MUL  R30,R27
	ADD  R31,R0
	MUL  R30,R26
	MOV  R30,R0
	ADD  R31,R1
	RET

__MULW12:
	RCALL __CHKSIGNW
	RCALL __MULW12U
	BRTC __MULW121
	RCALL __ANEGW1
__MULW121:
	RET

__DIVW21U:
	CLR  R0
	CLR  R1
	LDI  R25,16
__DIVW21U1:
	LSL  R26
	ROL  R27
	ROL  R0
	ROL  R1
	SUB  R0,R30
	SBC  R1,R31
	BRCC __DIVW21U2
	ADD  R0,R30
	ADC  R1,R31
	RJMP __DIVW21U3
__DIVW21U2:
	SBR  R26,1
__DIVW21U3:
	DEC  R25
	BRNE __DIVW21U1
	MOVW R30,R26
	MOVW R26,R0
	RET

__DIVW21:
	RCALL __CHKSIGNW
	RCALL __DIVW21U
	BRTC __DIVW211
	RCALL __ANEGW1
__DIVW211:
	RET

__MODW21U:
	RCALL __DIVW21U
	MOVW R30,R26
	RET

__MODW21:
	CLT
	SBRS R27,7
	RJMP __MODW211
	NEG  R27
	NEG  R26
	SBCI R27,0
	SET
__MODW211:
	SBRC R31,7
	RCALL __ANEGW1
	RCALL __DIVW21U
	MOVW R30,R26
	BRTC __MODW212
	RCALL __ANEGW1
__MODW212:
	RET

__MANDW12:
	CLT
	SBRS R31,7
	RJMP __MANDW121
	RCALL __ANEGW1
	SET
__MANDW121:
	AND  R30,R26
	AND  R31,R27
	BRTC __MANDW122
	RCALL __ANEGW1
__MANDW122:
	RET

__CHKSIGNW:
	CLT
	SBRS R31,7
	RJMP __CHKSW1
	RCALL __ANEGW1
	SET
__CHKSW1:
	SBRS R27,7
	RJMP __CHKSW2
	NEG  R27
	NEG  R26
	SBCI R27,0
	BLD  R0,0
	INC  R0
	BST  R0,0
__CHKSW2:
	RET

__GETW1PF:
	LPM  R0,Z+
	LPM  R31,Z
	MOV  R30,R0
	RET

__PUTPARD1:
	ST   -Y,R23
	ST   -Y,R22
	ST   -Y,R31
	ST   -Y,R30
	RET

__ROUND_REPACK:
	TST  R21
	BRPL __REPACK
	CPI  R21,0x80
	BRNE __ROUND_REPACK0
	SBRS R30,0
	RJMP __REPACK
__ROUND_REPACK0:
	ADIW R30,1
	ADC  R22,R25
	ADC  R23,R25
	BRVS __REPACK1

__REPACK:
	LDI  R21,0x80
	EOR  R21,R23
	BRNE __REPACK0
	PUSH R21
	RJMP __ZERORES
__REPACK0:
	CPI  R21,0xFF
	BREQ __REPACK1
	LSL  R22
	LSL  R0
	ROR  R21
	ROR  R22
	MOV  R23,R21
	RET
__REPACK1:
	PUSH R21
	TST  R0
	BRMI __REPACK2
	RJMP __MAXRES
__REPACK2:
	RJMP __MINRES

__UNPACK:
	LDI  R21,0x80
	MOV  R1,R25
	AND  R1,R21
	LSL  R24
	ROL  R25
	EOR  R25,R21
	LSL  R21
	ROR  R24

__UNPACK1:
	LDI  R21,0x80
	MOV  R0,R23
	AND  R0,R21
	LSL  R22
	ROL  R23
	EOR  R23,R21
	LSL  R21
	ROR  R22
	RET

__CFD1U:
	SET
	RJMP __CFD1U0
__CFD1:
	CLT
__CFD1U0:
	PUSH R21
	RCALL __UNPACK1
	CPI  R23,0x80
	BRLO __CFD10
	CPI  R23,0xFF
	BRCC __CFD10
	RJMP __ZERORES
__CFD10:
	LDI  R21,22
	SUB  R21,R23
	BRPL __CFD11
	NEG  R21
	CPI  R21,8
	BRTC __CFD19
	CPI  R21,9
__CFD19:
	BRLO __CFD17
	SER  R30
	SER  R31
	SER  R22
	LDI  R23,0x7F
	BLD  R23,7
	RJMP __CFD15
__CFD17:
	CLR  R23
	TST  R21
	BREQ __CFD15
__CFD18:
	LSL  R30
	ROL  R31
	ROL  R22
	ROL  R23
	DEC  R21
	BRNE __CFD18
	RJMP __CFD15
__CFD11:
	CLR  R23
__CFD12:
	CPI  R21,8
	BRLO __CFD13
	MOV  R30,R31
	MOV  R31,R22
	MOV  R22,R23
	SUBI R21,8
	RJMP __CFD12
__CFD13:
	TST  R21
	BREQ __CFD15
__CFD14:
	LSR  R23
	ROR  R22
	ROR  R31
	ROR  R30
	DEC  R21
	BRNE __CFD14
__CFD15:
	TST  R0
	BRPL __CFD16
	RCALL __ANEGD1
__CFD16:
	POP  R21
	RET

__CDF1U:
	SET
	RJMP __CDF1U0
__CDF1:
	CLT
__CDF1U0:
	SBIW R30,0
	SBCI R22,0
	SBCI R23,0
	BREQ __CDF10
	CLR  R0
	BRTS __CDF11
	TST  R23
	BRPL __CDF11
	COM  R0
	RCALL __ANEGD1
__CDF11:
	MOV  R1,R23
	LDI  R23,30
	TST  R1
__CDF12:
	BRMI __CDF13
	DEC  R23
	LSL  R30
	ROL  R31
	ROL  R22
	ROL  R1
	RJMP __CDF12
__CDF13:
	MOV  R30,R31
	MOV  R31,R22
	MOV  R22,R1
	PUSH R21
	RCALL __REPACK
	POP  R21
__CDF10:
	RET

__SWAPACC:
	PUSH R20
	MOVW R20,R30
	MOVW R30,R26
	MOVW R26,R20
	MOVW R20,R22
	MOVW R22,R24
	MOVW R24,R20
	MOV  R20,R0
	MOV  R0,R1
	MOV  R1,R20
	POP  R20
	RET

__UADD12:
	ADD  R30,R26
	ADC  R31,R27
	ADC  R22,R24
	RET

__NEGMAN1:
	COM  R30
	COM  R31
	COM  R22
	SUBI R30,-1
	SBCI R31,-1
	SBCI R22,-1
	RET

__ADDF12:
	PUSH R21
	RCALL __UNPACK
	CPI  R25,0x80
	BREQ __ADDF129

__ADDF120:
	CPI  R23,0x80
	BREQ __ADDF128
__ADDF121:
	MOV  R21,R23
	SUB  R21,R25
	BRVS __ADDF1211
	BRPL __ADDF122
	RCALL __SWAPACC
	RJMP __ADDF121
__ADDF122:
	CPI  R21,24
	BRLO __ADDF123
	CLR  R26
	CLR  R27
	CLR  R24
__ADDF123:
	CPI  R21,8
	BRLO __ADDF124
	MOV  R26,R27
	MOV  R27,R24
	CLR  R24
	SUBI R21,8
	RJMP __ADDF123
__ADDF124:
	TST  R21
	BREQ __ADDF126
__ADDF125:
	LSR  R24
	ROR  R27
	ROR  R26
	DEC  R21
	BRNE __ADDF125
__ADDF126:
	MOV  R21,R0
	EOR  R21,R1
	BRMI __ADDF127
	RCALL __UADD12
	BRCC __ADDF129
	ROR  R22
	ROR  R31
	ROR  R30
	INC  R23
	BRVC __ADDF129
	RJMP __MAXRES
__ADDF128:
	RCALL __SWAPACC
__ADDF129:
	RCALL __REPACK
	POP  R21
	RET
__ADDF1211:
	BRCC __ADDF128
	RJMP __ADDF129
__ADDF127:
	SUB  R30,R26
	SBC  R31,R27
	SBC  R22,R24
	BREQ __ZERORES
	BRCC __ADDF1210
	COM  R0
	RCALL __NEGMAN1
__ADDF1210:
	TST  R22
	BRMI __ADDF129
	LSL  R30
	ROL  R31
	ROL  R22
	DEC  R23
	BRVC __ADDF1210

__ZERORES:
	CLR  R30
	CLR  R31
	MOVW R22,R30
	POP  R21
	RET

__MINRES:
	SER  R30
	SER  R31
	LDI  R22,0x7F
	SER  R23
	POP  R21
	RET

__MAXRES:
	SER  R30
	SER  R31
	LDI  R22,0x7F
	LDI  R23,0x7F
	POP  R21
	RET

__MULF12:
	PUSH R21
	RCALL __UNPACK
	CPI  R23,0x80
	BREQ __ZERORES
	CPI  R25,0x80
	BREQ __ZERORES
	EOR  R0,R1
	SEC
	ADC  R23,R25
	BRVC __MULF124
	BRLT __ZERORES
__MULF125:
	TST  R0
	BRMI __MINRES
	RJMP __MAXRES
__MULF124:
	PUSH R0
	PUSH R17
	PUSH R18
	PUSH R19
	PUSH R20
	CLR  R17
	CLR  R18
	CLR  R25
	MUL  R22,R24
	MOVW R20,R0
	MUL  R24,R31
	MOV  R19,R0
	ADD  R20,R1
	ADC  R21,R25
	MUL  R22,R27
	ADD  R19,R0
	ADC  R20,R1
	ADC  R21,R25
	MUL  R24,R30
	RCALL __MULF126
	MUL  R27,R31
	RCALL __MULF126
	MUL  R22,R26
	RCALL __MULF126
	MUL  R27,R30
	RCALL __MULF127
	MUL  R26,R31
	RCALL __MULF127
	MUL  R26,R30
	ADD  R17,R1
	ADC  R18,R25
	ADC  R19,R25
	ADC  R20,R25
	ADC  R21,R25
	MOV  R30,R19
	MOV  R31,R20
	MOV  R22,R21
	MOV  R21,R18
	POP  R20
	POP  R19
	POP  R18
	POP  R17
	POP  R0
	TST  R22
	BRMI __MULF122
	LSL  R21
	ROL  R30
	ROL  R31
	ROL  R22
	RJMP __MULF123
__MULF122:
	INC  R23
	BRVS __MULF125
__MULF123:
	RCALL __ROUND_REPACK
	POP  R21
	RET

__MULF127:
	ADD  R17,R0
	ADC  R18,R1
	ADC  R19,R25
	RJMP __MULF128
__MULF126:
	ADD  R18,R0
	ADC  R19,R1
__MULF128:
	ADC  R20,R25
	ADC  R21,R25
	RET

_delay_ms:
	adiw r26,0
	breq __delay_ms1
__delay_ms0:
	wdr
	__DELAY_USW 0xE66
	sbiw r26,1
	brne __delay_ms0
__delay_ms1:
	ret

;END OF CODE MARKER
__END_OF_CODE:
